
prog.o:     file format elf32-i386


Disassembly of section .text:

00010000 <_start>:
   10000:	fa                   	cli    
   10001:	b0 00                	mov    $0x0,%al
   10003:	e6 70                	out    %al,$0x70
   10005:	31 c0                	xor    %eax,%eax
   10007:	66 b8 18 00          	mov    $0x18,%ax
   1000b:	8e d8                	mov    %eax,%ds
   1000d:	8e c0                	mov    %eax,%es
   1000f:	8e e0                	mov    %eax,%fs
   10011:	8e e8                	mov    %eax,%gs
   10013:	66 b8 20 00          	mov    $0x20,%ax
   10017:	8e d0                	mov    %eax,%ss
   10019:	bd 00 00 01 00       	mov    $0x10000,%ebp
   1001e:	89 ec                	mov    %ebp,%esp
   10020:	bf 1d b5 01 00       	mov    $0x1b51d,%edi

00010025 <clearbss>:
   10025:	c7 07 00 00 00 00    	movl   $0x0,(%edi)
   1002b:	83 c7 04             	add    $0x4,%edi
   1002e:	81 ff bc d2 01 00    	cmp    $0x1d2bc,%edi
   10034:	72 ef                	jb     10025 <clearbss>
   10036:	e8 09 1e 00 00       	call   11e44 <_init>
   1003b:	e9 2c 00 00 00       	jmp    1006c <__isr_restore>

00010040 <isr_save>:
   10040:	60                   	pusha  
   10041:	1e                   	push   %ds
   10042:	06                   	push   %es
   10043:	0f a0                	push   %fs
   10045:	0f a8                	push   %gs
   10047:	16                   	push   %ss
   10048:	8b 44 24 34          	mov    0x34(%esp),%eax
   1004c:	8b 5c 24 38          	mov    0x38(%esp),%ebx
   10050:	8b 15 b4 d2 01 00    	mov    0x1d2b4,%edx
   10056:	89 22                	mov    %esp,(%edx)
   10058:	8b 25 00 d2 01 00    	mov    0x1d200,%esp
   1005e:	53                   	push   %ebx
   1005f:	50                   	push   %eax
   10060:	8b 1c 85 c0 ca 01 00 	mov    0x1cac0(,%eax,4),%ebx
   10067:	ff d3                	call   *%ebx
   10069:	83 c4 08             	add    $0x8,%esp

0001006c <__isr_restore>:
   1006c:	8b 1d b4 d2 01 00    	mov    0x1d2b4,%ebx
   10072:	8b 23                	mov    (%ebx),%esp
   10074:	31 c0                	xor    %eax,%eax
   10076:	66 8b 43 12          	mov    0x12(%ebx),%ax
   1007a:	50                   	push   %eax
   1007b:	66 8b 43 10          	mov    0x10(%ebx),%ax
   1007f:	50                   	push   %eax
   10080:	a1 c4 ce 01 00       	mov    0x1cec4,%eax
   10085:	50                   	push   %eax
   10086:	68 a3 00 01 00       	push   $0x100a3
   1008b:	6a 01                	push   $0x1
   1008d:	6a 00                	push   $0x0
   1008f:	e8 3e 15 00 00       	call   115d2 <__cio_printf_at>
   10094:	83 c4 18             	add    $0x18,%esp
   10097:	17                   	pop    %ss
   10098:	0f a9                	pop    %gs
   1009a:	0f a1                	pop    %fs
   1009c:	07                   	pop    %es
   1009d:	1f                   	pop    %ds
   1009e:	61                   	popa   
   1009f:	83 c4 08             	add    $0x8,%esp
   100a2:	cf                   	iret   

000100a3 <fmtall>:
   100a3:	74 69                	je     1010e <fmt+0x50>
   100a5:	6d                   	insl   (%dx),%es:(%edi)
   100a6:	65 20 25 30 38 78 20 	and    %ah,%gs:0x20783830
   100ad:	70 69                	jo     10118 <fmt+0x5a>
   100af:	64 20 25 35 64 20 70 	and    %ah,%fs:0x70206435
   100b6:	70 69                	jo     10121 <fmt+0x63>
   100b8:	64                   	fs
   100b9:	20                   	.byte 0x20
   100ba:	25                   	.byte 0x25
   100bb:	35                   	.byte 0x35
   100bc:	64                   	fs
   100bd:	0a                   	.byte 0xa

000100be <fmt>:
   100be:	20 73 73             	and    %dh,0x73(%ebx)
   100c1:	3d 25 30 38 78       	cmp    $0x78383025,%eax
   100c6:	20 20                	and    %ah,(%eax)
   100c8:	67 73 3d             	addr16 jae 10108 <fmt+0x4a>
   100cb:	25 30 38 78 20       	and    $0x20783830,%eax
   100d0:	20 66 73             	and    %ah,0x73(%esi)
   100d3:	3d 25 30 38 78       	cmp    $0x78383025,%eax
   100d8:	20 20                	and    %ah,(%eax)
   100da:	65 73 3d             	gs jae 1011a <fmt+0x5c>
   100dd:	25 30 38 78 20       	and    $0x20783830,%eax
   100e2:	20 64 73 3d          	and    %ah,0x3d(%ebx,%esi,2)
   100e6:	25 30 38 78 0a       	and    $0xa783830,%eax
   100eb:	65 64 69 3d 25 30 38 	gs imul $0x69736520,%fs:0x78383025,%edi
   100f2:	78 20 65 73 69 
   100f7:	3d 25 30 38 78       	cmp    $0x78383025,%eax
   100fc:	20 65 62             	and    %ah,0x62(%ebp)
   100ff:	70 3d                	jo     1013e <fmt+0x80>
   10101:	25 30 38 78 20       	and    $0x20783830,%eax
   10106:	65 73 70             	gs jae 10179 <__isr_0x02+0x6>
   10109:	3d 25 30 38 78       	cmp    $0x78383025,%eax
   1010e:	20 65 62             	and    %ah,0x62(%ebp)
   10111:	78 3d                	js     10150 <fmt+0x92>
   10113:	25 30 38 78 0a       	and    $0xa783830,%eax
   10118:	65 64 78 3d          	gs fs js 10159 <fmt+0x9b>
   1011c:	25 30 38 78 20       	and    $0x20783830,%eax
   10121:	65 63 78 3d          	arpl   %di,%gs:0x3d(%eax)
   10125:	25 30 38 78 20       	and    $0x20783830,%eax
   1012a:	65 61                	gs popa 
   1012c:	78 3d                	js     1016b <__isr_0x01+0x1>
   1012e:	25 30 38 78 20       	and    $0x20783830,%eax
   10133:	76 65                	jbe    1019a <__isr_0x06+0x3>
   10135:	63 3d 25 30 38 78    	arpl   %di,0x78383025
   1013b:	20 63 6f             	and    %ah,0x6f(%ebx)
   1013e:	64 3d 25 30 38 78    	fs cmp $0x78383025,%eax
   10144:	0a 65 69             	or     0x69(%ebp),%ah
   10147:	70 3d                	jo     10186 <__isr_0x04+0x1>
   10149:	25 30 38 78 20       	and    $0x20783830,%eax
   1014e:	20 63 73             	and    %ah,0x73(%ebx)
   10151:	3d 25 30 38 78       	cmp    $0x78383025,%eax
   10156:	20 65 66             	and    %ah,0x66(%ebp)
   10159:	6c                   	insb   (%dx),%es:(%edi)
   1015a:	3d 25 30 38 78       	cmp    $0x78383025,%eax
   1015f:	0a 00                	or     (%eax),%al

00010161 <__isr_0x00>:
   10161:	6a 00                	push   $0x0
   10163:	6a 00                	push   $0x0
   10165:	e9 d6 fe ff ff       	jmp    10040 <isr_save>

0001016a <__isr_0x01>:
   1016a:	6a 00                	push   $0x0
   1016c:	6a 01                	push   $0x1
   1016e:	e9 cd fe ff ff       	jmp    10040 <isr_save>

00010173 <__isr_0x02>:
   10173:	6a 00                	push   $0x0
   10175:	6a 02                	push   $0x2
   10177:	e9 c4 fe ff ff       	jmp    10040 <isr_save>

0001017c <__isr_0x03>:
   1017c:	6a 00                	push   $0x0
   1017e:	6a 03                	push   $0x3
   10180:	e9 bb fe ff ff       	jmp    10040 <isr_save>

00010185 <__isr_0x04>:
   10185:	6a 00                	push   $0x0
   10187:	6a 04                	push   $0x4
   10189:	e9 b2 fe ff ff       	jmp    10040 <isr_save>

0001018e <__isr_0x05>:
   1018e:	6a 00                	push   $0x0
   10190:	6a 05                	push   $0x5
   10192:	e9 a9 fe ff ff       	jmp    10040 <isr_save>

00010197 <__isr_0x06>:
   10197:	6a 00                	push   $0x0
   10199:	6a 06                	push   $0x6
   1019b:	e9 a0 fe ff ff       	jmp    10040 <isr_save>

000101a0 <__isr_0x07>:
   101a0:	6a 00                	push   $0x0
   101a2:	6a 07                	push   $0x7
   101a4:	e9 97 fe ff ff       	jmp    10040 <isr_save>

000101a9 <__isr_0x08>:
   101a9:	6a 08                	push   $0x8
   101ab:	e9 90 fe ff ff       	jmp    10040 <isr_save>

000101b0 <__isr_0x09>:
   101b0:	6a 00                	push   $0x0
   101b2:	6a 09                	push   $0x9
   101b4:	e9 87 fe ff ff       	jmp    10040 <isr_save>

000101b9 <__isr_0x0a>:
   101b9:	6a 0a                	push   $0xa
   101bb:	e9 80 fe ff ff       	jmp    10040 <isr_save>

000101c0 <__isr_0x0b>:
   101c0:	6a 0b                	push   $0xb
   101c2:	e9 79 fe ff ff       	jmp    10040 <isr_save>

000101c7 <__isr_0x0c>:
   101c7:	6a 0c                	push   $0xc
   101c9:	e9 72 fe ff ff       	jmp    10040 <isr_save>

000101ce <__isr_0x0d>:
   101ce:	6a 0d                	push   $0xd
   101d0:	e9 6b fe ff ff       	jmp    10040 <isr_save>

000101d5 <__isr_0x0e>:
   101d5:	6a 0e                	push   $0xe
   101d7:	e9 64 fe ff ff       	jmp    10040 <isr_save>

000101dc <__isr_0x0f>:
   101dc:	6a 00                	push   $0x0
   101de:	6a 0f                	push   $0xf
   101e0:	e9 5b fe ff ff       	jmp    10040 <isr_save>

000101e5 <__isr_0x10>:
   101e5:	6a 00                	push   $0x0
   101e7:	6a 10                	push   $0x10
   101e9:	e9 52 fe ff ff       	jmp    10040 <isr_save>

000101ee <__isr_0x11>:
   101ee:	6a 11                	push   $0x11
   101f0:	e9 4b fe ff ff       	jmp    10040 <isr_save>

000101f5 <__isr_0x12>:
   101f5:	6a 00                	push   $0x0
   101f7:	6a 12                	push   $0x12
   101f9:	e9 42 fe ff ff       	jmp    10040 <isr_save>

000101fe <__isr_0x13>:
   101fe:	6a 00                	push   $0x0
   10200:	6a 13                	push   $0x13
   10202:	e9 39 fe ff ff       	jmp    10040 <isr_save>

00010207 <__isr_0x14>:
   10207:	6a 00                	push   $0x0
   10209:	6a 14                	push   $0x14
   1020b:	e9 30 fe ff ff       	jmp    10040 <isr_save>

00010210 <__isr_0x15>:
   10210:	6a 00                	push   $0x0
   10212:	6a 15                	push   $0x15
   10214:	e9 27 fe ff ff       	jmp    10040 <isr_save>

00010219 <__isr_0x16>:
   10219:	6a 00                	push   $0x0
   1021b:	6a 16                	push   $0x16
   1021d:	e9 1e fe ff ff       	jmp    10040 <isr_save>

00010222 <__isr_0x17>:
   10222:	6a 00                	push   $0x0
   10224:	6a 17                	push   $0x17
   10226:	e9 15 fe ff ff       	jmp    10040 <isr_save>

0001022b <__isr_0x18>:
   1022b:	6a 00                	push   $0x0
   1022d:	6a 18                	push   $0x18
   1022f:	e9 0c fe ff ff       	jmp    10040 <isr_save>

00010234 <__isr_0x19>:
   10234:	6a 00                	push   $0x0
   10236:	6a 19                	push   $0x19
   10238:	e9 03 fe ff ff       	jmp    10040 <isr_save>

0001023d <__isr_0x1a>:
   1023d:	6a 00                	push   $0x0
   1023f:	6a 1a                	push   $0x1a
   10241:	e9 fa fd ff ff       	jmp    10040 <isr_save>

00010246 <__isr_0x1b>:
   10246:	6a 00                	push   $0x0
   10248:	6a 1b                	push   $0x1b
   1024a:	e9 f1 fd ff ff       	jmp    10040 <isr_save>

0001024f <__isr_0x1c>:
   1024f:	6a 00                	push   $0x0
   10251:	6a 1c                	push   $0x1c
   10253:	e9 e8 fd ff ff       	jmp    10040 <isr_save>

00010258 <__isr_0x1d>:
   10258:	6a 00                	push   $0x0
   1025a:	6a 1d                	push   $0x1d
   1025c:	e9 df fd ff ff       	jmp    10040 <isr_save>

00010261 <__isr_0x1e>:
   10261:	6a 00                	push   $0x0
   10263:	6a 1e                	push   $0x1e
   10265:	e9 d6 fd ff ff       	jmp    10040 <isr_save>

0001026a <__isr_0x1f>:
   1026a:	6a 00                	push   $0x0
   1026c:	6a 1f                	push   $0x1f
   1026e:	e9 cd fd ff ff       	jmp    10040 <isr_save>

00010273 <__isr_0x20>:
   10273:	6a 00                	push   $0x0
   10275:	6a 20                	push   $0x20
   10277:	e9 c4 fd ff ff       	jmp    10040 <isr_save>

0001027c <__isr_0x21>:
   1027c:	6a 00                	push   $0x0
   1027e:	6a 21                	push   $0x21
   10280:	e9 bb fd ff ff       	jmp    10040 <isr_save>

00010285 <__isr_0x22>:
   10285:	6a 00                	push   $0x0
   10287:	6a 22                	push   $0x22
   10289:	e9 b2 fd ff ff       	jmp    10040 <isr_save>

0001028e <__isr_0x23>:
   1028e:	6a 00                	push   $0x0
   10290:	6a 23                	push   $0x23
   10292:	e9 a9 fd ff ff       	jmp    10040 <isr_save>

00010297 <__isr_0x24>:
   10297:	6a 00                	push   $0x0
   10299:	6a 24                	push   $0x24
   1029b:	e9 a0 fd ff ff       	jmp    10040 <isr_save>

000102a0 <__isr_0x25>:
   102a0:	6a 00                	push   $0x0
   102a2:	6a 25                	push   $0x25
   102a4:	e9 97 fd ff ff       	jmp    10040 <isr_save>

000102a9 <__isr_0x26>:
   102a9:	6a 00                	push   $0x0
   102ab:	6a 26                	push   $0x26
   102ad:	e9 8e fd ff ff       	jmp    10040 <isr_save>

000102b2 <__isr_0x27>:
   102b2:	6a 00                	push   $0x0
   102b4:	6a 27                	push   $0x27
   102b6:	e9 85 fd ff ff       	jmp    10040 <isr_save>

000102bb <__isr_0x28>:
   102bb:	6a 00                	push   $0x0
   102bd:	6a 28                	push   $0x28
   102bf:	e9 7c fd ff ff       	jmp    10040 <isr_save>

000102c4 <__isr_0x29>:
   102c4:	6a 00                	push   $0x0
   102c6:	6a 29                	push   $0x29
   102c8:	e9 73 fd ff ff       	jmp    10040 <isr_save>

000102cd <__isr_0x2a>:
   102cd:	6a 00                	push   $0x0
   102cf:	6a 2a                	push   $0x2a
   102d1:	e9 6a fd ff ff       	jmp    10040 <isr_save>

000102d6 <__isr_0x2b>:
   102d6:	6a 00                	push   $0x0
   102d8:	6a 2b                	push   $0x2b
   102da:	e9 61 fd ff ff       	jmp    10040 <isr_save>

000102df <__isr_0x2c>:
   102df:	6a 00                	push   $0x0
   102e1:	6a 2c                	push   $0x2c
   102e3:	e9 58 fd ff ff       	jmp    10040 <isr_save>

000102e8 <__isr_0x2d>:
   102e8:	6a 00                	push   $0x0
   102ea:	6a 2d                	push   $0x2d
   102ec:	e9 4f fd ff ff       	jmp    10040 <isr_save>

000102f1 <__isr_0x2e>:
   102f1:	6a 00                	push   $0x0
   102f3:	6a 2e                	push   $0x2e
   102f5:	e9 46 fd ff ff       	jmp    10040 <isr_save>

000102fa <__isr_0x2f>:
   102fa:	6a 00                	push   $0x0
   102fc:	6a 2f                	push   $0x2f
   102fe:	e9 3d fd ff ff       	jmp    10040 <isr_save>

00010303 <__isr_0x30>:
   10303:	6a 00                	push   $0x0
   10305:	6a 30                	push   $0x30
   10307:	e9 34 fd ff ff       	jmp    10040 <isr_save>

0001030c <__isr_0x31>:
   1030c:	6a 00                	push   $0x0
   1030e:	6a 31                	push   $0x31
   10310:	e9 2b fd ff ff       	jmp    10040 <isr_save>

00010315 <__isr_0x32>:
   10315:	6a 00                	push   $0x0
   10317:	6a 32                	push   $0x32
   10319:	e9 22 fd ff ff       	jmp    10040 <isr_save>

0001031e <__isr_0x33>:
   1031e:	6a 00                	push   $0x0
   10320:	6a 33                	push   $0x33
   10322:	e9 19 fd ff ff       	jmp    10040 <isr_save>

00010327 <__isr_0x34>:
   10327:	6a 00                	push   $0x0
   10329:	6a 34                	push   $0x34
   1032b:	e9 10 fd ff ff       	jmp    10040 <isr_save>

00010330 <__isr_0x35>:
   10330:	6a 00                	push   $0x0
   10332:	6a 35                	push   $0x35
   10334:	e9 07 fd ff ff       	jmp    10040 <isr_save>

00010339 <__isr_0x36>:
   10339:	6a 00                	push   $0x0
   1033b:	6a 36                	push   $0x36
   1033d:	e9 fe fc ff ff       	jmp    10040 <isr_save>

00010342 <__isr_0x37>:
   10342:	6a 00                	push   $0x0
   10344:	6a 37                	push   $0x37
   10346:	e9 f5 fc ff ff       	jmp    10040 <isr_save>

0001034b <__isr_0x38>:
   1034b:	6a 00                	push   $0x0
   1034d:	6a 38                	push   $0x38
   1034f:	e9 ec fc ff ff       	jmp    10040 <isr_save>

00010354 <__isr_0x39>:
   10354:	6a 00                	push   $0x0
   10356:	6a 39                	push   $0x39
   10358:	e9 e3 fc ff ff       	jmp    10040 <isr_save>

0001035d <__isr_0x3a>:
   1035d:	6a 00                	push   $0x0
   1035f:	6a 3a                	push   $0x3a
   10361:	e9 da fc ff ff       	jmp    10040 <isr_save>

00010366 <__isr_0x3b>:
   10366:	6a 00                	push   $0x0
   10368:	6a 3b                	push   $0x3b
   1036a:	e9 d1 fc ff ff       	jmp    10040 <isr_save>

0001036f <__isr_0x3c>:
   1036f:	6a 00                	push   $0x0
   10371:	6a 3c                	push   $0x3c
   10373:	e9 c8 fc ff ff       	jmp    10040 <isr_save>

00010378 <__isr_0x3d>:
   10378:	6a 00                	push   $0x0
   1037a:	6a 3d                	push   $0x3d
   1037c:	e9 bf fc ff ff       	jmp    10040 <isr_save>

00010381 <__isr_0x3e>:
   10381:	6a 00                	push   $0x0
   10383:	6a 3e                	push   $0x3e
   10385:	e9 b6 fc ff ff       	jmp    10040 <isr_save>

0001038a <__isr_0x3f>:
   1038a:	6a 00                	push   $0x0
   1038c:	6a 3f                	push   $0x3f
   1038e:	e9 ad fc ff ff       	jmp    10040 <isr_save>

00010393 <__isr_0x40>:
   10393:	6a 00                	push   $0x0
   10395:	6a 40                	push   $0x40
   10397:	e9 a4 fc ff ff       	jmp    10040 <isr_save>

0001039c <__isr_0x41>:
   1039c:	6a 00                	push   $0x0
   1039e:	6a 41                	push   $0x41
   103a0:	e9 9b fc ff ff       	jmp    10040 <isr_save>

000103a5 <__isr_0x42>:
   103a5:	6a 00                	push   $0x0
   103a7:	6a 42                	push   $0x42
   103a9:	e9 92 fc ff ff       	jmp    10040 <isr_save>

000103ae <__isr_0x43>:
   103ae:	6a 00                	push   $0x0
   103b0:	6a 43                	push   $0x43
   103b2:	e9 89 fc ff ff       	jmp    10040 <isr_save>

000103b7 <__isr_0x44>:
   103b7:	6a 00                	push   $0x0
   103b9:	6a 44                	push   $0x44
   103bb:	e9 80 fc ff ff       	jmp    10040 <isr_save>

000103c0 <__isr_0x45>:
   103c0:	6a 00                	push   $0x0
   103c2:	6a 45                	push   $0x45
   103c4:	e9 77 fc ff ff       	jmp    10040 <isr_save>

000103c9 <__isr_0x46>:
   103c9:	6a 00                	push   $0x0
   103cb:	6a 46                	push   $0x46
   103cd:	e9 6e fc ff ff       	jmp    10040 <isr_save>

000103d2 <__isr_0x47>:
   103d2:	6a 00                	push   $0x0
   103d4:	6a 47                	push   $0x47
   103d6:	e9 65 fc ff ff       	jmp    10040 <isr_save>

000103db <__isr_0x48>:
   103db:	6a 00                	push   $0x0
   103dd:	6a 48                	push   $0x48
   103df:	e9 5c fc ff ff       	jmp    10040 <isr_save>

000103e4 <__isr_0x49>:
   103e4:	6a 00                	push   $0x0
   103e6:	6a 49                	push   $0x49
   103e8:	e9 53 fc ff ff       	jmp    10040 <isr_save>

000103ed <__isr_0x4a>:
   103ed:	6a 00                	push   $0x0
   103ef:	6a 4a                	push   $0x4a
   103f1:	e9 4a fc ff ff       	jmp    10040 <isr_save>

000103f6 <__isr_0x4b>:
   103f6:	6a 00                	push   $0x0
   103f8:	6a 4b                	push   $0x4b
   103fa:	e9 41 fc ff ff       	jmp    10040 <isr_save>

000103ff <__isr_0x4c>:
   103ff:	6a 00                	push   $0x0
   10401:	6a 4c                	push   $0x4c
   10403:	e9 38 fc ff ff       	jmp    10040 <isr_save>

00010408 <__isr_0x4d>:
   10408:	6a 00                	push   $0x0
   1040a:	6a 4d                	push   $0x4d
   1040c:	e9 2f fc ff ff       	jmp    10040 <isr_save>

00010411 <__isr_0x4e>:
   10411:	6a 00                	push   $0x0
   10413:	6a 4e                	push   $0x4e
   10415:	e9 26 fc ff ff       	jmp    10040 <isr_save>

0001041a <__isr_0x4f>:
   1041a:	6a 00                	push   $0x0
   1041c:	6a 4f                	push   $0x4f
   1041e:	e9 1d fc ff ff       	jmp    10040 <isr_save>

00010423 <__isr_0x50>:
   10423:	6a 00                	push   $0x0
   10425:	6a 50                	push   $0x50
   10427:	e9 14 fc ff ff       	jmp    10040 <isr_save>

0001042c <__isr_0x51>:
   1042c:	6a 00                	push   $0x0
   1042e:	6a 51                	push   $0x51
   10430:	e9 0b fc ff ff       	jmp    10040 <isr_save>

00010435 <__isr_0x52>:
   10435:	6a 00                	push   $0x0
   10437:	6a 52                	push   $0x52
   10439:	e9 02 fc ff ff       	jmp    10040 <isr_save>

0001043e <__isr_0x53>:
   1043e:	6a 00                	push   $0x0
   10440:	6a 53                	push   $0x53
   10442:	e9 f9 fb ff ff       	jmp    10040 <isr_save>

00010447 <__isr_0x54>:
   10447:	6a 00                	push   $0x0
   10449:	6a 54                	push   $0x54
   1044b:	e9 f0 fb ff ff       	jmp    10040 <isr_save>

00010450 <__isr_0x55>:
   10450:	6a 00                	push   $0x0
   10452:	6a 55                	push   $0x55
   10454:	e9 e7 fb ff ff       	jmp    10040 <isr_save>

00010459 <__isr_0x56>:
   10459:	6a 00                	push   $0x0
   1045b:	6a 56                	push   $0x56
   1045d:	e9 de fb ff ff       	jmp    10040 <isr_save>

00010462 <__isr_0x57>:
   10462:	6a 00                	push   $0x0
   10464:	6a 57                	push   $0x57
   10466:	e9 d5 fb ff ff       	jmp    10040 <isr_save>

0001046b <__isr_0x58>:
   1046b:	6a 00                	push   $0x0
   1046d:	6a 58                	push   $0x58
   1046f:	e9 cc fb ff ff       	jmp    10040 <isr_save>

00010474 <__isr_0x59>:
   10474:	6a 00                	push   $0x0
   10476:	6a 59                	push   $0x59
   10478:	e9 c3 fb ff ff       	jmp    10040 <isr_save>

0001047d <__isr_0x5a>:
   1047d:	6a 00                	push   $0x0
   1047f:	6a 5a                	push   $0x5a
   10481:	e9 ba fb ff ff       	jmp    10040 <isr_save>

00010486 <__isr_0x5b>:
   10486:	6a 00                	push   $0x0
   10488:	6a 5b                	push   $0x5b
   1048a:	e9 b1 fb ff ff       	jmp    10040 <isr_save>

0001048f <__isr_0x5c>:
   1048f:	6a 00                	push   $0x0
   10491:	6a 5c                	push   $0x5c
   10493:	e9 a8 fb ff ff       	jmp    10040 <isr_save>

00010498 <__isr_0x5d>:
   10498:	6a 00                	push   $0x0
   1049a:	6a 5d                	push   $0x5d
   1049c:	e9 9f fb ff ff       	jmp    10040 <isr_save>

000104a1 <__isr_0x5e>:
   104a1:	6a 00                	push   $0x0
   104a3:	6a 5e                	push   $0x5e
   104a5:	e9 96 fb ff ff       	jmp    10040 <isr_save>

000104aa <__isr_0x5f>:
   104aa:	6a 00                	push   $0x0
   104ac:	6a 5f                	push   $0x5f
   104ae:	e9 8d fb ff ff       	jmp    10040 <isr_save>

000104b3 <__isr_0x60>:
   104b3:	6a 00                	push   $0x0
   104b5:	6a 60                	push   $0x60
   104b7:	e9 84 fb ff ff       	jmp    10040 <isr_save>

000104bc <__isr_0x61>:
   104bc:	6a 00                	push   $0x0
   104be:	6a 61                	push   $0x61
   104c0:	e9 7b fb ff ff       	jmp    10040 <isr_save>

000104c5 <__isr_0x62>:
   104c5:	6a 00                	push   $0x0
   104c7:	6a 62                	push   $0x62
   104c9:	e9 72 fb ff ff       	jmp    10040 <isr_save>

000104ce <__isr_0x63>:
   104ce:	6a 00                	push   $0x0
   104d0:	6a 63                	push   $0x63
   104d2:	e9 69 fb ff ff       	jmp    10040 <isr_save>

000104d7 <__isr_0x64>:
   104d7:	6a 00                	push   $0x0
   104d9:	6a 64                	push   $0x64
   104db:	e9 60 fb ff ff       	jmp    10040 <isr_save>

000104e0 <__isr_0x65>:
   104e0:	6a 00                	push   $0x0
   104e2:	6a 65                	push   $0x65
   104e4:	e9 57 fb ff ff       	jmp    10040 <isr_save>

000104e9 <__isr_0x66>:
   104e9:	6a 00                	push   $0x0
   104eb:	6a 66                	push   $0x66
   104ed:	e9 4e fb ff ff       	jmp    10040 <isr_save>

000104f2 <__isr_0x67>:
   104f2:	6a 00                	push   $0x0
   104f4:	6a 67                	push   $0x67
   104f6:	e9 45 fb ff ff       	jmp    10040 <isr_save>

000104fb <__isr_0x68>:
   104fb:	6a 00                	push   $0x0
   104fd:	6a 68                	push   $0x68
   104ff:	e9 3c fb ff ff       	jmp    10040 <isr_save>

00010504 <__isr_0x69>:
   10504:	6a 00                	push   $0x0
   10506:	6a 69                	push   $0x69
   10508:	e9 33 fb ff ff       	jmp    10040 <isr_save>

0001050d <__isr_0x6a>:
   1050d:	6a 00                	push   $0x0
   1050f:	6a 6a                	push   $0x6a
   10511:	e9 2a fb ff ff       	jmp    10040 <isr_save>

00010516 <__isr_0x6b>:
   10516:	6a 00                	push   $0x0
   10518:	6a 6b                	push   $0x6b
   1051a:	e9 21 fb ff ff       	jmp    10040 <isr_save>

0001051f <__isr_0x6c>:
   1051f:	6a 00                	push   $0x0
   10521:	6a 6c                	push   $0x6c
   10523:	e9 18 fb ff ff       	jmp    10040 <isr_save>

00010528 <__isr_0x6d>:
   10528:	6a 00                	push   $0x0
   1052a:	6a 6d                	push   $0x6d
   1052c:	e9 0f fb ff ff       	jmp    10040 <isr_save>

00010531 <__isr_0x6e>:
   10531:	6a 00                	push   $0x0
   10533:	6a 6e                	push   $0x6e
   10535:	e9 06 fb ff ff       	jmp    10040 <isr_save>

0001053a <__isr_0x6f>:
   1053a:	6a 00                	push   $0x0
   1053c:	6a 6f                	push   $0x6f
   1053e:	e9 fd fa ff ff       	jmp    10040 <isr_save>

00010543 <__isr_0x70>:
   10543:	6a 00                	push   $0x0
   10545:	6a 70                	push   $0x70
   10547:	e9 f4 fa ff ff       	jmp    10040 <isr_save>

0001054c <__isr_0x71>:
   1054c:	6a 00                	push   $0x0
   1054e:	6a 71                	push   $0x71
   10550:	e9 eb fa ff ff       	jmp    10040 <isr_save>

00010555 <__isr_0x72>:
   10555:	6a 00                	push   $0x0
   10557:	6a 72                	push   $0x72
   10559:	e9 e2 fa ff ff       	jmp    10040 <isr_save>

0001055e <__isr_0x73>:
   1055e:	6a 00                	push   $0x0
   10560:	6a 73                	push   $0x73
   10562:	e9 d9 fa ff ff       	jmp    10040 <isr_save>

00010567 <__isr_0x74>:
   10567:	6a 00                	push   $0x0
   10569:	6a 74                	push   $0x74
   1056b:	e9 d0 fa ff ff       	jmp    10040 <isr_save>

00010570 <__isr_0x75>:
   10570:	6a 00                	push   $0x0
   10572:	6a 75                	push   $0x75
   10574:	e9 c7 fa ff ff       	jmp    10040 <isr_save>

00010579 <__isr_0x76>:
   10579:	6a 00                	push   $0x0
   1057b:	6a 76                	push   $0x76
   1057d:	e9 be fa ff ff       	jmp    10040 <isr_save>

00010582 <__isr_0x77>:
   10582:	6a 00                	push   $0x0
   10584:	6a 77                	push   $0x77
   10586:	e9 b5 fa ff ff       	jmp    10040 <isr_save>

0001058b <__isr_0x78>:
   1058b:	6a 00                	push   $0x0
   1058d:	6a 78                	push   $0x78
   1058f:	e9 ac fa ff ff       	jmp    10040 <isr_save>

00010594 <__isr_0x79>:
   10594:	6a 00                	push   $0x0
   10596:	6a 79                	push   $0x79
   10598:	e9 a3 fa ff ff       	jmp    10040 <isr_save>

0001059d <__isr_0x7a>:
   1059d:	6a 00                	push   $0x0
   1059f:	6a 7a                	push   $0x7a
   105a1:	e9 9a fa ff ff       	jmp    10040 <isr_save>

000105a6 <__isr_0x7b>:
   105a6:	6a 00                	push   $0x0
   105a8:	6a 7b                	push   $0x7b
   105aa:	e9 91 fa ff ff       	jmp    10040 <isr_save>

000105af <__isr_0x7c>:
   105af:	6a 00                	push   $0x0
   105b1:	6a 7c                	push   $0x7c
   105b3:	e9 88 fa ff ff       	jmp    10040 <isr_save>

000105b8 <__isr_0x7d>:
   105b8:	6a 00                	push   $0x0
   105ba:	6a 7d                	push   $0x7d
   105bc:	e9 7f fa ff ff       	jmp    10040 <isr_save>

000105c1 <__isr_0x7e>:
   105c1:	6a 00                	push   $0x0
   105c3:	6a 7e                	push   $0x7e
   105c5:	e9 76 fa ff ff       	jmp    10040 <isr_save>

000105ca <__isr_0x7f>:
   105ca:	6a 00                	push   $0x0
   105cc:	6a 7f                	push   $0x7f
   105ce:	e9 6d fa ff ff       	jmp    10040 <isr_save>

000105d3 <__isr_0x80>:
   105d3:	6a 00                	push   $0x0
   105d5:	68 80 00 00 00       	push   $0x80
   105da:	e9 61 fa ff ff       	jmp    10040 <isr_save>

000105df <__isr_0x81>:
   105df:	6a 00                	push   $0x0
   105e1:	68 81 00 00 00       	push   $0x81
   105e6:	e9 55 fa ff ff       	jmp    10040 <isr_save>

000105eb <__isr_0x82>:
   105eb:	6a 00                	push   $0x0
   105ed:	68 82 00 00 00       	push   $0x82
   105f2:	e9 49 fa ff ff       	jmp    10040 <isr_save>

000105f7 <__isr_0x83>:
   105f7:	6a 00                	push   $0x0
   105f9:	68 83 00 00 00       	push   $0x83
   105fe:	e9 3d fa ff ff       	jmp    10040 <isr_save>

00010603 <__isr_0x84>:
   10603:	6a 00                	push   $0x0
   10605:	68 84 00 00 00       	push   $0x84
   1060a:	e9 31 fa ff ff       	jmp    10040 <isr_save>

0001060f <__isr_0x85>:
   1060f:	6a 00                	push   $0x0
   10611:	68 85 00 00 00       	push   $0x85
   10616:	e9 25 fa ff ff       	jmp    10040 <isr_save>

0001061b <__isr_0x86>:
   1061b:	6a 00                	push   $0x0
   1061d:	68 86 00 00 00       	push   $0x86
   10622:	e9 19 fa ff ff       	jmp    10040 <isr_save>

00010627 <__isr_0x87>:
   10627:	6a 00                	push   $0x0
   10629:	68 87 00 00 00       	push   $0x87
   1062e:	e9 0d fa ff ff       	jmp    10040 <isr_save>

00010633 <__isr_0x88>:
   10633:	6a 00                	push   $0x0
   10635:	68 88 00 00 00       	push   $0x88
   1063a:	e9 01 fa ff ff       	jmp    10040 <isr_save>

0001063f <__isr_0x89>:
   1063f:	6a 00                	push   $0x0
   10641:	68 89 00 00 00       	push   $0x89
   10646:	e9 f5 f9 ff ff       	jmp    10040 <isr_save>

0001064b <__isr_0x8a>:
   1064b:	6a 00                	push   $0x0
   1064d:	68 8a 00 00 00       	push   $0x8a
   10652:	e9 e9 f9 ff ff       	jmp    10040 <isr_save>

00010657 <__isr_0x8b>:
   10657:	6a 00                	push   $0x0
   10659:	68 8b 00 00 00       	push   $0x8b
   1065e:	e9 dd f9 ff ff       	jmp    10040 <isr_save>

00010663 <__isr_0x8c>:
   10663:	6a 00                	push   $0x0
   10665:	68 8c 00 00 00       	push   $0x8c
   1066a:	e9 d1 f9 ff ff       	jmp    10040 <isr_save>

0001066f <__isr_0x8d>:
   1066f:	6a 00                	push   $0x0
   10671:	68 8d 00 00 00       	push   $0x8d
   10676:	e9 c5 f9 ff ff       	jmp    10040 <isr_save>

0001067b <__isr_0x8e>:
   1067b:	6a 00                	push   $0x0
   1067d:	68 8e 00 00 00       	push   $0x8e
   10682:	e9 b9 f9 ff ff       	jmp    10040 <isr_save>

00010687 <__isr_0x8f>:
   10687:	6a 00                	push   $0x0
   10689:	68 8f 00 00 00       	push   $0x8f
   1068e:	e9 ad f9 ff ff       	jmp    10040 <isr_save>

00010693 <__isr_0x90>:
   10693:	6a 00                	push   $0x0
   10695:	68 90 00 00 00       	push   $0x90
   1069a:	e9 a1 f9 ff ff       	jmp    10040 <isr_save>

0001069f <__isr_0x91>:
   1069f:	6a 00                	push   $0x0
   106a1:	68 91 00 00 00       	push   $0x91
   106a6:	e9 95 f9 ff ff       	jmp    10040 <isr_save>

000106ab <__isr_0x92>:
   106ab:	6a 00                	push   $0x0
   106ad:	68 92 00 00 00       	push   $0x92
   106b2:	e9 89 f9 ff ff       	jmp    10040 <isr_save>

000106b7 <__isr_0x93>:
   106b7:	6a 00                	push   $0x0
   106b9:	68 93 00 00 00       	push   $0x93
   106be:	e9 7d f9 ff ff       	jmp    10040 <isr_save>

000106c3 <__isr_0x94>:
   106c3:	6a 00                	push   $0x0
   106c5:	68 94 00 00 00       	push   $0x94
   106ca:	e9 71 f9 ff ff       	jmp    10040 <isr_save>

000106cf <__isr_0x95>:
   106cf:	6a 00                	push   $0x0
   106d1:	68 95 00 00 00       	push   $0x95
   106d6:	e9 65 f9 ff ff       	jmp    10040 <isr_save>

000106db <__isr_0x96>:
   106db:	6a 00                	push   $0x0
   106dd:	68 96 00 00 00       	push   $0x96
   106e2:	e9 59 f9 ff ff       	jmp    10040 <isr_save>

000106e7 <__isr_0x97>:
   106e7:	6a 00                	push   $0x0
   106e9:	68 97 00 00 00       	push   $0x97
   106ee:	e9 4d f9 ff ff       	jmp    10040 <isr_save>

000106f3 <__isr_0x98>:
   106f3:	6a 00                	push   $0x0
   106f5:	68 98 00 00 00       	push   $0x98
   106fa:	e9 41 f9 ff ff       	jmp    10040 <isr_save>

000106ff <__isr_0x99>:
   106ff:	6a 00                	push   $0x0
   10701:	68 99 00 00 00       	push   $0x99
   10706:	e9 35 f9 ff ff       	jmp    10040 <isr_save>

0001070b <__isr_0x9a>:
   1070b:	6a 00                	push   $0x0
   1070d:	68 9a 00 00 00       	push   $0x9a
   10712:	e9 29 f9 ff ff       	jmp    10040 <isr_save>

00010717 <__isr_0x9b>:
   10717:	6a 00                	push   $0x0
   10719:	68 9b 00 00 00       	push   $0x9b
   1071e:	e9 1d f9 ff ff       	jmp    10040 <isr_save>

00010723 <__isr_0x9c>:
   10723:	6a 00                	push   $0x0
   10725:	68 9c 00 00 00       	push   $0x9c
   1072a:	e9 11 f9 ff ff       	jmp    10040 <isr_save>

0001072f <__isr_0x9d>:
   1072f:	6a 00                	push   $0x0
   10731:	68 9d 00 00 00       	push   $0x9d
   10736:	e9 05 f9 ff ff       	jmp    10040 <isr_save>

0001073b <__isr_0x9e>:
   1073b:	6a 00                	push   $0x0
   1073d:	68 9e 00 00 00       	push   $0x9e
   10742:	e9 f9 f8 ff ff       	jmp    10040 <isr_save>

00010747 <__isr_0x9f>:
   10747:	6a 00                	push   $0x0
   10749:	68 9f 00 00 00       	push   $0x9f
   1074e:	e9 ed f8 ff ff       	jmp    10040 <isr_save>

00010753 <__isr_0xa0>:
   10753:	6a 00                	push   $0x0
   10755:	68 a0 00 00 00       	push   $0xa0
   1075a:	e9 e1 f8 ff ff       	jmp    10040 <isr_save>

0001075f <__isr_0xa1>:
   1075f:	6a 00                	push   $0x0
   10761:	68 a1 00 00 00       	push   $0xa1
   10766:	e9 d5 f8 ff ff       	jmp    10040 <isr_save>

0001076b <__isr_0xa2>:
   1076b:	6a 00                	push   $0x0
   1076d:	68 a2 00 00 00       	push   $0xa2
   10772:	e9 c9 f8 ff ff       	jmp    10040 <isr_save>

00010777 <__isr_0xa3>:
   10777:	6a 00                	push   $0x0
   10779:	68 a3 00 00 00       	push   $0xa3
   1077e:	e9 bd f8 ff ff       	jmp    10040 <isr_save>

00010783 <__isr_0xa4>:
   10783:	6a 00                	push   $0x0
   10785:	68 a4 00 00 00       	push   $0xa4
   1078a:	e9 b1 f8 ff ff       	jmp    10040 <isr_save>

0001078f <__isr_0xa5>:
   1078f:	6a 00                	push   $0x0
   10791:	68 a5 00 00 00       	push   $0xa5
   10796:	e9 a5 f8 ff ff       	jmp    10040 <isr_save>

0001079b <__isr_0xa6>:
   1079b:	6a 00                	push   $0x0
   1079d:	68 a6 00 00 00       	push   $0xa6
   107a2:	e9 99 f8 ff ff       	jmp    10040 <isr_save>

000107a7 <__isr_0xa7>:
   107a7:	6a 00                	push   $0x0
   107a9:	68 a7 00 00 00       	push   $0xa7
   107ae:	e9 8d f8 ff ff       	jmp    10040 <isr_save>

000107b3 <__isr_0xa8>:
   107b3:	6a 00                	push   $0x0
   107b5:	68 a8 00 00 00       	push   $0xa8
   107ba:	e9 81 f8 ff ff       	jmp    10040 <isr_save>

000107bf <__isr_0xa9>:
   107bf:	6a 00                	push   $0x0
   107c1:	68 a9 00 00 00       	push   $0xa9
   107c6:	e9 75 f8 ff ff       	jmp    10040 <isr_save>

000107cb <__isr_0xaa>:
   107cb:	6a 00                	push   $0x0
   107cd:	68 aa 00 00 00       	push   $0xaa
   107d2:	e9 69 f8 ff ff       	jmp    10040 <isr_save>

000107d7 <__isr_0xab>:
   107d7:	6a 00                	push   $0x0
   107d9:	68 ab 00 00 00       	push   $0xab
   107de:	e9 5d f8 ff ff       	jmp    10040 <isr_save>

000107e3 <__isr_0xac>:
   107e3:	6a 00                	push   $0x0
   107e5:	68 ac 00 00 00       	push   $0xac
   107ea:	e9 51 f8 ff ff       	jmp    10040 <isr_save>

000107ef <__isr_0xad>:
   107ef:	6a 00                	push   $0x0
   107f1:	68 ad 00 00 00       	push   $0xad
   107f6:	e9 45 f8 ff ff       	jmp    10040 <isr_save>

000107fb <__isr_0xae>:
   107fb:	6a 00                	push   $0x0
   107fd:	68 ae 00 00 00       	push   $0xae
   10802:	e9 39 f8 ff ff       	jmp    10040 <isr_save>

00010807 <__isr_0xaf>:
   10807:	6a 00                	push   $0x0
   10809:	68 af 00 00 00       	push   $0xaf
   1080e:	e9 2d f8 ff ff       	jmp    10040 <isr_save>

00010813 <__isr_0xb0>:
   10813:	6a 00                	push   $0x0
   10815:	68 b0 00 00 00       	push   $0xb0
   1081a:	e9 21 f8 ff ff       	jmp    10040 <isr_save>

0001081f <__isr_0xb1>:
   1081f:	6a 00                	push   $0x0
   10821:	68 b1 00 00 00       	push   $0xb1
   10826:	e9 15 f8 ff ff       	jmp    10040 <isr_save>

0001082b <__isr_0xb2>:
   1082b:	6a 00                	push   $0x0
   1082d:	68 b2 00 00 00       	push   $0xb2
   10832:	e9 09 f8 ff ff       	jmp    10040 <isr_save>

00010837 <__isr_0xb3>:
   10837:	6a 00                	push   $0x0
   10839:	68 b3 00 00 00       	push   $0xb3
   1083e:	e9 fd f7 ff ff       	jmp    10040 <isr_save>

00010843 <__isr_0xb4>:
   10843:	6a 00                	push   $0x0
   10845:	68 b4 00 00 00       	push   $0xb4
   1084a:	e9 f1 f7 ff ff       	jmp    10040 <isr_save>

0001084f <__isr_0xb5>:
   1084f:	6a 00                	push   $0x0
   10851:	68 b5 00 00 00       	push   $0xb5
   10856:	e9 e5 f7 ff ff       	jmp    10040 <isr_save>

0001085b <__isr_0xb6>:
   1085b:	6a 00                	push   $0x0
   1085d:	68 b6 00 00 00       	push   $0xb6
   10862:	e9 d9 f7 ff ff       	jmp    10040 <isr_save>

00010867 <__isr_0xb7>:
   10867:	6a 00                	push   $0x0
   10869:	68 b7 00 00 00       	push   $0xb7
   1086e:	e9 cd f7 ff ff       	jmp    10040 <isr_save>

00010873 <__isr_0xb8>:
   10873:	6a 00                	push   $0x0
   10875:	68 b8 00 00 00       	push   $0xb8
   1087a:	e9 c1 f7 ff ff       	jmp    10040 <isr_save>

0001087f <__isr_0xb9>:
   1087f:	6a 00                	push   $0x0
   10881:	68 b9 00 00 00       	push   $0xb9
   10886:	e9 b5 f7 ff ff       	jmp    10040 <isr_save>

0001088b <__isr_0xba>:
   1088b:	6a 00                	push   $0x0
   1088d:	68 ba 00 00 00       	push   $0xba
   10892:	e9 a9 f7 ff ff       	jmp    10040 <isr_save>

00010897 <__isr_0xbb>:
   10897:	6a 00                	push   $0x0
   10899:	68 bb 00 00 00       	push   $0xbb
   1089e:	e9 9d f7 ff ff       	jmp    10040 <isr_save>

000108a3 <__isr_0xbc>:
   108a3:	6a 00                	push   $0x0
   108a5:	68 bc 00 00 00       	push   $0xbc
   108aa:	e9 91 f7 ff ff       	jmp    10040 <isr_save>

000108af <__isr_0xbd>:
   108af:	6a 00                	push   $0x0
   108b1:	68 bd 00 00 00       	push   $0xbd
   108b6:	e9 85 f7 ff ff       	jmp    10040 <isr_save>

000108bb <__isr_0xbe>:
   108bb:	6a 00                	push   $0x0
   108bd:	68 be 00 00 00       	push   $0xbe
   108c2:	e9 79 f7 ff ff       	jmp    10040 <isr_save>

000108c7 <__isr_0xbf>:
   108c7:	6a 00                	push   $0x0
   108c9:	68 bf 00 00 00       	push   $0xbf
   108ce:	e9 6d f7 ff ff       	jmp    10040 <isr_save>

000108d3 <__isr_0xc0>:
   108d3:	6a 00                	push   $0x0
   108d5:	68 c0 00 00 00       	push   $0xc0
   108da:	e9 61 f7 ff ff       	jmp    10040 <isr_save>

000108df <__isr_0xc1>:
   108df:	6a 00                	push   $0x0
   108e1:	68 c1 00 00 00       	push   $0xc1
   108e6:	e9 55 f7 ff ff       	jmp    10040 <isr_save>

000108eb <__isr_0xc2>:
   108eb:	6a 00                	push   $0x0
   108ed:	68 c2 00 00 00       	push   $0xc2
   108f2:	e9 49 f7 ff ff       	jmp    10040 <isr_save>

000108f7 <__isr_0xc3>:
   108f7:	6a 00                	push   $0x0
   108f9:	68 c3 00 00 00       	push   $0xc3
   108fe:	e9 3d f7 ff ff       	jmp    10040 <isr_save>

00010903 <__isr_0xc4>:
   10903:	6a 00                	push   $0x0
   10905:	68 c4 00 00 00       	push   $0xc4
   1090a:	e9 31 f7 ff ff       	jmp    10040 <isr_save>

0001090f <__isr_0xc5>:
   1090f:	6a 00                	push   $0x0
   10911:	68 c5 00 00 00       	push   $0xc5
   10916:	e9 25 f7 ff ff       	jmp    10040 <isr_save>

0001091b <__isr_0xc6>:
   1091b:	6a 00                	push   $0x0
   1091d:	68 c6 00 00 00       	push   $0xc6
   10922:	e9 19 f7 ff ff       	jmp    10040 <isr_save>

00010927 <__isr_0xc7>:
   10927:	6a 00                	push   $0x0
   10929:	68 c7 00 00 00       	push   $0xc7
   1092e:	e9 0d f7 ff ff       	jmp    10040 <isr_save>

00010933 <__isr_0xc8>:
   10933:	6a 00                	push   $0x0
   10935:	68 c8 00 00 00       	push   $0xc8
   1093a:	e9 01 f7 ff ff       	jmp    10040 <isr_save>

0001093f <__isr_0xc9>:
   1093f:	6a 00                	push   $0x0
   10941:	68 c9 00 00 00       	push   $0xc9
   10946:	e9 f5 f6 ff ff       	jmp    10040 <isr_save>

0001094b <__isr_0xca>:
   1094b:	6a 00                	push   $0x0
   1094d:	68 ca 00 00 00       	push   $0xca
   10952:	e9 e9 f6 ff ff       	jmp    10040 <isr_save>

00010957 <__isr_0xcb>:
   10957:	6a 00                	push   $0x0
   10959:	68 cb 00 00 00       	push   $0xcb
   1095e:	e9 dd f6 ff ff       	jmp    10040 <isr_save>

00010963 <__isr_0xcc>:
   10963:	6a 00                	push   $0x0
   10965:	68 cc 00 00 00       	push   $0xcc
   1096a:	e9 d1 f6 ff ff       	jmp    10040 <isr_save>

0001096f <__isr_0xcd>:
   1096f:	6a 00                	push   $0x0
   10971:	68 cd 00 00 00       	push   $0xcd
   10976:	e9 c5 f6 ff ff       	jmp    10040 <isr_save>

0001097b <__isr_0xce>:
   1097b:	6a 00                	push   $0x0
   1097d:	68 ce 00 00 00       	push   $0xce
   10982:	e9 b9 f6 ff ff       	jmp    10040 <isr_save>

00010987 <__isr_0xcf>:
   10987:	6a 00                	push   $0x0
   10989:	68 cf 00 00 00       	push   $0xcf
   1098e:	e9 ad f6 ff ff       	jmp    10040 <isr_save>

00010993 <__isr_0xd0>:
   10993:	6a 00                	push   $0x0
   10995:	68 d0 00 00 00       	push   $0xd0
   1099a:	e9 a1 f6 ff ff       	jmp    10040 <isr_save>

0001099f <__isr_0xd1>:
   1099f:	6a 00                	push   $0x0
   109a1:	68 d1 00 00 00       	push   $0xd1
   109a6:	e9 95 f6 ff ff       	jmp    10040 <isr_save>

000109ab <__isr_0xd2>:
   109ab:	6a 00                	push   $0x0
   109ad:	68 d2 00 00 00       	push   $0xd2
   109b2:	e9 89 f6 ff ff       	jmp    10040 <isr_save>

000109b7 <__isr_0xd3>:
   109b7:	6a 00                	push   $0x0
   109b9:	68 d3 00 00 00       	push   $0xd3
   109be:	e9 7d f6 ff ff       	jmp    10040 <isr_save>

000109c3 <__isr_0xd4>:
   109c3:	6a 00                	push   $0x0
   109c5:	68 d4 00 00 00       	push   $0xd4
   109ca:	e9 71 f6 ff ff       	jmp    10040 <isr_save>

000109cf <__isr_0xd5>:
   109cf:	6a 00                	push   $0x0
   109d1:	68 d5 00 00 00       	push   $0xd5
   109d6:	e9 65 f6 ff ff       	jmp    10040 <isr_save>

000109db <__isr_0xd6>:
   109db:	6a 00                	push   $0x0
   109dd:	68 d6 00 00 00       	push   $0xd6
   109e2:	e9 59 f6 ff ff       	jmp    10040 <isr_save>

000109e7 <__isr_0xd7>:
   109e7:	6a 00                	push   $0x0
   109e9:	68 d7 00 00 00       	push   $0xd7
   109ee:	e9 4d f6 ff ff       	jmp    10040 <isr_save>

000109f3 <__isr_0xd8>:
   109f3:	6a 00                	push   $0x0
   109f5:	68 d8 00 00 00       	push   $0xd8
   109fa:	e9 41 f6 ff ff       	jmp    10040 <isr_save>

000109ff <__isr_0xd9>:
   109ff:	6a 00                	push   $0x0
   10a01:	68 d9 00 00 00       	push   $0xd9
   10a06:	e9 35 f6 ff ff       	jmp    10040 <isr_save>

00010a0b <__isr_0xda>:
   10a0b:	6a 00                	push   $0x0
   10a0d:	68 da 00 00 00       	push   $0xda
   10a12:	e9 29 f6 ff ff       	jmp    10040 <isr_save>

00010a17 <__isr_0xdb>:
   10a17:	6a 00                	push   $0x0
   10a19:	68 db 00 00 00       	push   $0xdb
   10a1e:	e9 1d f6 ff ff       	jmp    10040 <isr_save>

00010a23 <__isr_0xdc>:
   10a23:	6a 00                	push   $0x0
   10a25:	68 dc 00 00 00       	push   $0xdc
   10a2a:	e9 11 f6 ff ff       	jmp    10040 <isr_save>

00010a2f <__isr_0xdd>:
   10a2f:	6a 00                	push   $0x0
   10a31:	68 dd 00 00 00       	push   $0xdd
   10a36:	e9 05 f6 ff ff       	jmp    10040 <isr_save>

00010a3b <__isr_0xde>:
   10a3b:	6a 00                	push   $0x0
   10a3d:	68 de 00 00 00       	push   $0xde
   10a42:	e9 f9 f5 ff ff       	jmp    10040 <isr_save>

00010a47 <__isr_0xdf>:
   10a47:	6a 00                	push   $0x0
   10a49:	68 df 00 00 00       	push   $0xdf
   10a4e:	e9 ed f5 ff ff       	jmp    10040 <isr_save>

00010a53 <__isr_0xe0>:
   10a53:	6a 00                	push   $0x0
   10a55:	68 e0 00 00 00       	push   $0xe0
   10a5a:	e9 e1 f5 ff ff       	jmp    10040 <isr_save>

00010a5f <__isr_0xe1>:
   10a5f:	6a 00                	push   $0x0
   10a61:	68 e1 00 00 00       	push   $0xe1
   10a66:	e9 d5 f5 ff ff       	jmp    10040 <isr_save>

00010a6b <__isr_0xe2>:
   10a6b:	6a 00                	push   $0x0
   10a6d:	68 e2 00 00 00       	push   $0xe2
   10a72:	e9 c9 f5 ff ff       	jmp    10040 <isr_save>

00010a77 <__isr_0xe3>:
   10a77:	6a 00                	push   $0x0
   10a79:	68 e3 00 00 00       	push   $0xe3
   10a7e:	e9 bd f5 ff ff       	jmp    10040 <isr_save>

00010a83 <__isr_0xe4>:
   10a83:	6a 00                	push   $0x0
   10a85:	68 e4 00 00 00       	push   $0xe4
   10a8a:	e9 b1 f5 ff ff       	jmp    10040 <isr_save>

00010a8f <__isr_0xe5>:
   10a8f:	6a 00                	push   $0x0
   10a91:	68 e5 00 00 00       	push   $0xe5
   10a96:	e9 a5 f5 ff ff       	jmp    10040 <isr_save>

00010a9b <__isr_0xe6>:
   10a9b:	6a 00                	push   $0x0
   10a9d:	68 e6 00 00 00       	push   $0xe6
   10aa2:	e9 99 f5 ff ff       	jmp    10040 <isr_save>

00010aa7 <__isr_0xe7>:
   10aa7:	6a 00                	push   $0x0
   10aa9:	68 e7 00 00 00       	push   $0xe7
   10aae:	e9 8d f5 ff ff       	jmp    10040 <isr_save>

00010ab3 <__isr_0xe8>:
   10ab3:	6a 00                	push   $0x0
   10ab5:	68 e8 00 00 00       	push   $0xe8
   10aba:	e9 81 f5 ff ff       	jmp    10040 <isr_save>

00010abf <__isr_0xe9>:
   10abf:	6a 00                	push   $0x0
   10ac1:	68 e9 00 00 00       	push   $0xe9
   10ac6:	e9 75 f5 ff ff       	jmp    10040 <isr_save>

00010acb <__isr_0xea>:
   10acb:	6a 00                	push   $0x0
   10acd:	68 ea 00 00 00       	push   $0xea
   10ad2:	e9 69 f5 ff ff       	jmp    10040 <isr_save>

00010ad7 <__isr_0xeb>:
   10ad7:	6a 00                	push   $0x0
   10ad9:	68 eb 00 00 00       	push   $0xeb
   10ade:	e9 5d f5 ff ff       	jmp    10040 <isr_save>

00010ae3 <__isr_0xec>:
   10ae3:	6a 00                	push   $0x0
   10ae5:	68 ec 00 00 00       	push   $0xec
   10aea:	e9 51 f5 ff ff       	jmp    10040 <isr_save>

00010aef <__isr_0xed>:
   10aef:	6a 00                	push   $0x0
   10af1:	68 ed 00 00 00       	push   $0xed
   10af6:	e9 45 f5 ff ff       	jmp    10040 <isr_save>

00010afb <__isr_0xee>:
   10afb:	6a 00                	push   $0x0
   10afd:	68 ee 00 00 00       	push   $0xee
   10b02:	e9 39 f5 ff ff       	jmp    10040 <isr_save>

00010b07 <__isr_0xef>:
   10b07:	6a 00                	push   $0x0
   10b09:	68 ef 00 00 00       	push   $0xef
   10b0e:	e9 2d f5 ff ff       	jmp    10040 <isr_save>

00010b13 <__isr_0xf0>:
   10b13:	6a 00                	push   $0x0
   10b15:	68 f0 00 00 00       	push   $0xf0
   10b1a:	e9 21 f5 ff ff       	jmp    10040 <isr_save>

00010b1f <__isr_0xf1>:
   10b1f:	6a 00                	push   $0x0
   10b21:	68 f1 00 00 00       	push   $0xf1
   10b26:	e9 15 f5 ff ff       	jmp    10040 <isr_save>

00010b2b <__isr_0xf2>:
   10b2b:	6a 00                	push   $0x0
   10b2d:	68 f2 00 00 00       	push   $0xf2
   10b32:	e9 09 f5 ff ff       	jmp    10040 <isr_save>

00010b37 <__isr_0xf3>:
   10b37:	6a 00                	push   $0x0
   10b39:	68 f3 00 00 00       	push   $0xf3
   10b3e:	e9 fd f4 ff ff       	jmp    10040 <isr_save>

00010b43 <__isr_0xf4>:
   10b43:	6a 00                	push   $0x0
   10b45:	68 f4 00 00 00       	push   $0xf4
   10b4a:	e9 f1 f4 ff ff       	jmp    10040 <isr_save>

00010b4f <__isr_0xf5>:
   10b4f:	6a 00                	push   $0x0
   10b51:	68 f5 00 00 00       	push   $0xf5
   10b56:	e9 e5 f4 ff ff       	jmp    10040 <isr_save>

00010b5b <__isr_0xf6>:
   10b5b:	6a 00                	push   $0x0
   10b5d:	68 f6 00 00 00       	push   $0xf6
   10b62:	e9 d9 f4 ff ff       	jmp    10040 <isr_save>

00010b67 <__isr_0xf7>:
   10b67:	6a 00                	push   $0x0
   10b69:	68 f7 00 00 00       	push   $0xf7
   10b6e:	e9 cd f4 ff ff       	jmp    10040 <isr_save>

00010b73 <__isr_0xf8>:
   10b73:	6a 00                	push   $0x0
   10b75:	68 f8 00 00 00       	push   $0xf8
   10b7a:	e9 c1 f4 ff ff       	jmp    10040 <isr_save>

00010b7f <__isr_0xf9>:
   10b7f:	6a 00                	push   $0x0
   10b81:	68 f9 00 00 00       	push   $0xf9
   10b86:	e9 b5 f4 ff ff       	jmp    10040 <isr_save>

00010b8b <__isr_0xfa>:
   10b8b:	6a 00                	push   $0x0
   10b8d:	68 fa 00 00 00       	push   $0xfa
   10b92:	e9 a9 f4 ff ff       	jmp    10040 <isr_save>

00010b97 <__isr_0xfb>:
   10b97:	6a 00                	push   $0x0
   10b99:	68 fb 00 00 00       	push   $0xfb
   10b9e:	e9 9d f4 ff ff       	jmp    10040 <isr_save>

00010ba3 <__isr_0xfc>:
   10ba3:	6a 00                	push   $0x0
   10ba5:	68 fc 00 00 00       	push   $0xfc
   10baa:	e9 91 f4 ff ff       	jmp    10040 <isr_save>

00010baf <__isr_0xfd>:
   10baf:	6a 00                	push   $0x0
   10bb1:	68 fd 00 00 00       	push   $0xfd
   10bb6:	e9 85 f4 ff ff       	jmp    10040 <isr_save>

00010bbb <__isr_0xfe>:
   10bbb:	6a 00                	push   $0x0
   10bbd:	68 fe 00 00 00       	push   $0xfe
   10bc2:	e9 79 f4 ff ff       	jmp    10040 <isr_save>

00010bc7 <__isr_0xff>:
   10bc7:	6a 00                	push   $0x0
   10bc9:	68 ff 00 00 00       	push   $0xff
   10bce:	e9 6d f4 ff ff       	jmp    10040 <isr_save>

00010bd3 <__c_setcursor>:
   10bd3:	f3 0f 1e fb          	endbr32 
   10bd7:	55                   	push   %ebp
   10bd8:	89 e5                	mov    %esp,%ebp
   10bda:	83 ec 18             	sub    $0x18,%esp
   10bdd:	a1 b0 ca 01 00       	mov    0x1cab0,%eax
   10be2:	89 45 f4             	mov    %eax,-0xc(%ebp)
   10be5:	a1 a4 ca 01 00       	mov    0x1caa4,%eax
   10bea:	39 45 f4             	cmp    %eax,-0xc(%ebp)
   10bed:	76 08                	jbe    10bf7 <__c_setcursor+0x24>
   10bef:	a1 a4 ca 01 00       	mov    0x1caa4,%eax
   10bf4:	89 45 f4             	mov    %eax,-0xc(%ebp)
   10bf7:	8b 55 f4             	mov    -0xc(%ebp),%edx
   10bfa:	89 d0                	mov    %edx,%eax
   10bfc:	c1 e0 02             	shl    $0x2,%eax
   10bff:	01 d0                	add    %edx,%eax
   10c01:	c1 e0 04             	shl    $0x4,%eax
   10c04:	89 c2                	mov    %eax,%edx
   10c06:	a1 9c ca 01 00       	mov    0x1ca9c,%eax
   10c0b:	01 d0                	add    %edx,%eax
   10c0d:	89 45 f0             	mov    %eax,-0x10(%ebp)
   10c10:	83 ec 08             	sub    $0x8,%esp
   10c13:	6a 0e                	push   $0xe
   10c15:	68 d4 03 00 00       	push   $0x3d4
   10c1a:	e8 3e 61 00 00       	call   16d5d <__outb>
   10c1f:	83 c4 10             	add    $0x10,%esp
   10c22:	8b 45 f0             	mov    -0x10(%ebp),%eax
   10c25:	c1 e8 08             	shr    $0x8,%eax
   10c28:	0f b6 c0             	movzbl %al,%eax
   10c2b:	83 ec 08             	sub    $0x8,%esp
   10c2e:	50                   	push   %eax
   10c2f:	68 d5 03 00 00       	push   $0x3d5
   10c34:	e8 24 61 00 00       	call   16d5d <__outb>
   10c39:	83 c4 10             	add    $0x10,%esp
   10c3c:	83 ec 08             	sub    $0x8,%esp
   10c3f:	6a 0f                	push   $0xf
   10c41:	68 d4 03 00 00       	push   $0x3d4
   10c46:	e8 12 61 00 00       	call   16d5d <__outb>
   10c4b:	83 c4 10             	add    $0x10,%esp
   10c4e:	8b 45 f0             	mov    -0x10(%ebp),%eax
   10c51:	0f b6 c0             	movzbl %al,%eax
   10c54:	83 ec 08             	sub    $0x8,%esp
   10c57:	50                   	push   %eax
   10c58:	68 d5 03 00 00       	push   $0x3d5
   10c5d:	e8 fb 60 00 00       	call   16d5d <__outb>
   10c62:	83 c4 10             	add    $0x10,%esp
   10c65:	90                   	nop
   10c66:	c9                   	leave  
   10c67:	c3                   	ret    

00010c68 <__c_putchar_at>:
   10c68:	f3 0f 1e fb          	endbr32 
   10c6c:	55                   	push   %ebp
   10c6d:	89 e5                	mov    %esp,%ebp
   10c6f:	83 ec 10             	sub    $0x10,%esp
   10c72:	a1 98 ca 01 00       	mov    0x1ca98,%eax
   10c77:	39 45 08             	cmp    %eax,0x8(%ebp)
   10c7a:	77 4c                	ja     10cc8 <__c_putchar_at+0x60>
   10c7c:	a1 b4 ca 01 00       	mov    0x1cab4,%eax
   10c81:	39 45 0c             	cmp    %eax,0xc(%ebp)
   10c84:	77 42                	ja     10cc8 <__c_putchar_at+0x60>
   10c86:	8b 55 0c             	mov    0xc(%ebp),%edx
   10c89:	89 d0                	mov    %edx,%eax
   10c8b:	c1 e0 02             	shl    $0x2,%eax
   10c8e:	01 d0                	add    %edx,%eax
   10c90:	c1 e0 04             	shl    $0x4,%eax
   10c93:	89 c2                	mov    %eax,%edx
   10c95:	8b 45 08             	mov    0x8(%ebp),%eax
   10c98:	01 d0                	add    %edx,%eax
   10c9a:	05 00 c0 05 00       	add    $0x5c000,%eax
   10c9f:	01 c0                	add    %eax,%eax
   10ca1:	89 45 fc             	mov    %eax,-0x4(%ebp)
   10ca4:	81 7d 10 ff 00 00 00 	cmpl   $0xff,0x10(%ebp)
   10cab:	76 0d                	jbe    10cba <__c_putchar_at+0x52>
   10cad:	8b 45 10             	mov    0x10(%ebp),%eax
   10cb0:	89 c2                	mov    %eax,%edx
   10cb2:	8b 45 fc             	mov    -0x4(%ebp),%eax
   10cb5:	66 89 10             	mov    %dx,(%eax)
   10cb8:	eb 0e                	jmp    10cc8 <__c_putchar_at+0x60>
   10cba:	8b 45 10             	mov    0x10(%ebp),%eax
   10cbd:	80 cc 07             	or     $0x7,%ah
   10cc0:	89 c2                	mov    %eax,%edx
   10cc2:	8b 45 fc             	mov    -0x4(%ebp),%eax
   10cc5:	66 89 10             	mov    %dx,(%eax)
   10cc8:	90                   	nop
   10cc9:	c9                   	leave  
   10cca:	c3                   	ret    

00010ccb <__cio_setscroll>:
   10ccb:	f3 0f 1e fb          	endbr32 
   10ccf:	55                   	push   %ebp
   10cd0:	89 e5                	mov    %esp,%ebp
   10cd2:	83 ec 08             	sub    $0x8,%esp
   10cd5:	8b 15 98 ca 01 00    	mov    0x1ca98,%edx
   10cdb:	a1 ac ca 01 00       	mov    0x1caac,%eax
   10ce0:	83 ec 04             	sub    $0x4,%esp
   10ce3:	52                   	push   %edx
   10ce4:	ff 75 08             	pushl  0x8(%ebp)
   10ce7:	50                   	push   %eax
   10ce8:	e8 1c 16 00 00       	call   12309 <__bound>
   10ced:	83 c4 10             	add    $0x10,%esp
   10cf0:	a3 b8 ca 01 00       	mov    %eax,0x1cab8
   10cf5:	8b 15 b4 ca 01 00    	mov    0x1cab4,%edx
   10cfb:	a1 a0 ca 01 00       	mov    0x1caa0,%eax
   10d00:	83 ec 04             	sub    $0x4,%esp
   10d03:	52                   	push   %edx
   10d04:	ff 75 0c             	pushl  0xc(%ebp)
   10d07:	50                   	push   %eax
   10d08:	e8 fc 15 00 00       	call   12309 <__bound>
   10d0d:	83 c4 10             	add    $0x10,%esp
   10d10:	a3 a8 ca 01 00       	mov    %eax,0x1caa8
   10d15:	8b 15 98 ca 01 00    	mov    0x1ca98,%edx
   10d1b:	a1 b8 ca 01 00       	mov    0x1cab8,%eax
   10d20:	83 ec 04             	sub    $0x4,%esp
   10d23:	52                   	push   %edx
   10d24:	ff 75 10             	pushl  0x10(%ebp)
   10d27:	50                   	push   %eax
   10d28:	e8 dc 15 00 00       	call   12309 <__bound>
   10d2d:	83 c4 10             	add    $0x10,%esp
   10d30:	a3 94 ca 01 00       	mov    %eax,0x1ca94
   10d35:	8b 15 b4 ca 01 00    	mov    0x1cab4,%edx
   10d3b:	a1 a8 ca 01 00       	mov    0x1caa8,%eax
   10d40:	83 ec 04             	sub    $0x4,%esp
   10d43:	52                   	push   %edx
   10d44:	ff 75 14             	pushl  0x14(%ebp)
   10d47:	50                   	push   %eax
   10d48:	e8 bc 15 00 00       	call   12309 <__bound>
   10d4d:	83 c4 10             	add    $0x10,%esp
   10d50:	a3 a4 ca 01 00       	mov    %eax,0x1caa4
   10d55:	a1 b8 ca 01 00       	mov    0x1cab8,%eax
   10d5a:	a3 9c ca 01 00       	mov    %eax,0x1ca9c
   10d5f:	a1 a8 ca 01 00       	mov    0x1caa8,%eax
   10d64:	a3 b0 ca 01 00       	mov    %eax,0x1cab0
   10d69:	e8 65 fe ff ff       	call   10bd3 <__c_setcursor>
   10d6e:	90                   	nop
   10d6f:	c9                   	leave  
   10d70:	c3                   	ret    

00010d71 <__cio_moveto>:
   10d71:	f3 0f 1e fb          	endbr32 
   10d75:	55                   	push   %ebp
   10d76:	89 e5                	mov    %esp,%ebp
   10d78:	83 ec 08             	sub    $0x8,%esp
   10d7b:	8b 15 94 ca 01 00    	mov    0x1ca94,%edx
   10d81:	8b 0d b8 ca 01 00    	mov    0x1cab8,%ecx
   10d87:	8b 45 08             	mov    0x8(%ebp),%eax
   10d8a:	01 c1                	add    %eax,%ecx
   10d8c:	a1 b8 ca 01 00       	mov    0x1cab8,%eax
   10d91:	83 ec 04             	sub    $0x4,%esp
   10d94:	52                   	push   %edx
   10d95:	51                   	push   %ecx
   10d96:	50                   	push   %eax
   10d97:	e8 6d 15 00 00       	call   12309 <__bound>
   10d9c:	83 c4 10             	add    $0x10,%esp
   10d9f:	a3 9c ca 01 00       	mov    %eax,0x1ca9c
   10da4:	8b 15 a4 ca 01 00    	mov    0x1caa4,%edx
   10daa:	8b 0d a8 ca 01 00    	mov    0x1caa8,%ecx
   10db0:	8b 45 0c             	mov    0xc(%ebp),%eax
   10db3:	01 c1                	add    %eax,%ecx
   10db5:	a1 a8 ca 01 00       	mov    0x1caa8,%eax
   10dba:	83 ec 04             	sub    $0x4,%esp
   10dbd:	52                   	push   %edx
   10dbe:	51                   	push   %ecx
   10dbf:	50                   	push   %eax
   10dc0:	e8 44 15 00 00       	call   12309 <__bound>
   10dc5:	83 c4 10             	add    $0x10,%esp
   10dc8:	a3 b0 ca 01 00       	mov    %eax,0x1cab0
   10dcd:	e8 01 fe ff ff       	call   10bd3 <__c_setcursor>
   10dd2:	90                   	nop
   10dd3:	c9                   	leave  
   10dd4:	c3                   	ret    

00010dd5 <__cio_putchar_at>:
   10dd5:	f3 0f 1e fb          	endbr32 
   10dd9:	55                   	push   %ebp
   10dda:	89 e5                	mov    %esp,%ebp
   10ddc:	83 ec 10             	sub    $0x10,%esp
   10ddf:	8b 45 10             	mov    0x10(%ebp),%eax
   10de2:	83 e0 7f             	and    $0x7f,%eax
   10de5:	83 f8 0a             	cmp    $0xa,%eax
   10de8:	75 53                	jne    10e3d <__cio_putchar_at+0x68>
   10dea:	a1 94 ca 01 00       	mov    0x1ca94,%eax
   10def:	39 45 08             	cmp    %eax,0x8(%ebp)
   10df2:	76 0a                	jbe    10dfe <__cio_putchar_at+0x29>
   10df4:	a1 98 ca 01 00       	mov    0x1ca98,%eax
   10df9:	89 45 fc             	mov    %eax,-0x4(%ebp)
   10dfc:	eb 35                	jmp    10e33 <__cio_putchar_at+0x5e>
   10dfe:	a1 b8 ca 01 00       	mov    0x1cab8,%eax
   10e03:	39 45 08             	cmp    %eax,0x8(%ebp)
   10e06:	72 0a                	jb     10e12 <__cio_putchar_at+0x3d>
   10e08:	a1 94 ca 01 00       	mov    0x1ca94,%eax
   10e0d:	89 45 fc             	mov    %eax,-0x4(%ebp)
   10e10:	eb 21                	jmp    10e33 <__cio_putchar_at+0x5e>
   10e12:	a1 b8 ca 01 00       	mov    0x1cab8,%eax
   10e17:	83 e8 01             	sub    $0x1,%eax
   10e1a:	89 45 fc             	mov    %eax,-0x4(%ebp)
   10e1d:	eb 14                	jmp    10e33 <__cio_putchar_at+0x5e>
   10e1f:	6a 20                	push   $0x20
   10e21:	ff 75 0c             	pushl  0xc(%ebp)
   10e24:	ff 75 08             	pushl  0x8(%ebp)
   10e27:	e8 3c fe ff ff       	call   10c68 <__c_putchar_at>
   10e2c:	83 c4 0c             	add    $0xc,%esp
   10e2f:	83 45 08 01          	addl   $0x1,0x8(%ebp)
   10e33:	8b 45 08             	mov    0x8(%ebp),%eax
   10e36:	3b 45 fc             	cmp    -0x4(%ebp),%eax
   10e39:	76 e4                	jbe    10e1f <__cio_putchar_at+0x4a>
   10e3b:	eb 11                	jmp    10e4e <__cio_putchar_at+0x79>
   10e3d:	ff 75 10             	pushl  0x10(%ebp)
   10e40:	ff 75 0c             	pushl  0xc(%ebp)
   10e43:	ff 75 08             	pushl  0x8(%ebp)
   10e46:	e8 1d fe ff ff       	call   10c68 <__c_putchar_at>
   10e4b:	83 c4 0c             	add    $0xc,%esp
   10e4e:	90                   	nop
   10e4f:	c9                   	leave  
   10e50:	c3                   	ret    

00010e51 <__cio_putchar>:
   10e51:	f3 0f 1e fb          	endbr32 
   10e55:	55                   	push   %ebp
   10e56:	89 e5                	mov    %esp,%ebp
   10e58:	83 ec 08             	sub    $0x8,%esp
   10e5b:	8b 15 b0 ca 01 00    	mov    0x1cab0,%edx
   10e61:	a1 a4 ca 01 00       	mov    0x1caa4,%eax
   10e66:	39 c2                	cmp    %eax,%edx
   10e68:	76 25                	jbe    10e8f <__cio_putchar+0x3e>
   10e6a:	8b 15 b0 ca 01 00    	mov    0x1cab0,%edx
   10e70:	a1 a4 ca 01 00       	mov    0x1caa4,%eax
   10e75:	29 c2                	sub    %eax,%edx
   10e77:	89 d0                	mov    %edx,%eax
   10e79:	83 ec 0c             	sub    $0xc,%esp
   10e7c:	50                   	push   %eax
   10e7d:	e8 7d 02 00 00       	call   110ff <__cio_scroll>
   10e82:	83 c4 10             	add    $0x10,%esp
   10e85:	a1 a4 ca 01 00       	mov    0x1caa4,%eax
   10e8a:	a3 b0 ca 01 00       	mov    %eax,0x1cab0
   10e8f:	8b 45 08             	mov    0x8(%ebp),%eax
   10e92:	0f b6 c0             	movzbl %al,%eax
   10e95:	83 f8 0a             	cmp    $0xa,%eax
   10e98:	74 2e                	je     10ec8 <__cio_putchar+0x77>
   10e9a:	83 f8 0d             	cmp    $0xd,%eax
   10e9d:	74 51                	je     10ef0 <__cio_putchar+0x9f>
   10e9f:	eb 5b                	jmp    10efc <__cio_putchar+0xab>
   10ea1:	8b 15 b0 ca 01 00    	mov    0x1cab0,%edx
   10ea7:	a1 9c ca 01 00       	mov    0x1ca9c,%eax
   10eac:	83 ec 04             	sub    $0x4,%esp
   10eaf:	6a 20                	push   $0x20
   10eb1:	52                   	push   %edx
   10eb2:	50                   	push   %eax
   10eb3:	e8 b0 fd ff ff       	call   10c68 <__c_putchar_at>
   10eb8:	83 c4 10             	add    $0x10,%esp
   10ebb:	a1 9c ca 01 00       	mov    0x1ca9c,%eax
   10ec0:	83 c0 01             	add    $0x1,%eax
   10ec3:	a3 9c ca 01 00       	mov    %eax,0x1ca9c
   10ec8:	8b 15 9c ca 01 00    	mov    0x1ca9c,%edx
   10ece:	a1 94 ca 01 00       	mov    0x1ca94,%eax
   10ed3:	39 c2                	cmp    %eax,%edx
   10ed5:	76 ca                	jbe    10ea1 <__cio_putchar+0x50>
   10ed7:	a1 b8 ca 01 00       	mov    0x1cab8,%eax
   10edc:	a3 9c ca 01 00       	mov    %eax,0x1ca9c
   10ee1:	a1 b0 ca 01 00       	mov    0x1cab0,%eax
   10ee6:	83 c0 01             	add    $0x1,%eax
   10ee9:	a3 b0 ca 01 00       	mov    %eax,0x1cab0
   10eee:	eb 5b                	jmp    10f4b <__cio_putchar+0xfa>
   10ef0:	a1 b8 ca 01 00       	mov    0x1cab8,%eax
   10ef5:	a3 9c ca 01 00       	mov    %eax,0x1ca9c
   10efa:	eb 4f                	jmp    10f4b <__cio_putchar+0xfa>
   10efc:	8b 15 b0 ca 01 00    	mov    0x1cab0,%edx
   10f02:	a1 9c ca 01 00       	mov    0x1ca9c,%eax
   10f07:	83 ec 04             	sub    $0x4,%esp
   10f0a:	ff 75 08             	pushl  0x8(%ebp)
   10f0d:	52                   	push   %edx
   10f0e:	50                   	push   %eax
   10f0f:	e8 54 fd ff ff       	call   10c68 <__c_putchar_at>
   10f14:	83 c4 10             	add    $0x10,%esp
   10f17:	a1 9c ca 01 00       	mov    0x1ca9c,%eax
   10f1c:	83 c0 01             	add    $0x1,%eax
   10f1f:	a3 9c ca 01 00       	mov    %eax,0x1ca9c
   10f24:	8b 15 9c ca 01 00    	mov    0x1ca9c,%edx
   10f2a:	a1 94 ca 01 00       	mov    0x1ca94,%eax
   10f2f:	39 c2                	cmp    %eax,%edx
   10f31:	76 17                	jbe    10f4a <__cio_putchar+0xf9>
   10f33:	a1 b8 ca 01 00       	mov    0x1cab8,%eax
   10f38:	a3 9c ca 01 00       	mov    %eax,0x1ca9c
   10f3d:	a1 b0 ca 01 00       	mov    0x1cab0,%eax
   10f42:	83 c0 01             	add    $0x1,%eax
   10f45:	a3 b0 ca 01 00       	mov    %eax,0x1cab0
   10f4a:	90                   	nop
   10f4b:	e8 83 fc ff ff       	call   10bd3 <__c_setcursor>
   10f50:	90                   	nop
   10f51:	c9                   	leave  
   10f52:	c3                   	ret    

00010f53 <__cio_puts_at>:
   10f53:	f3 0f 1e fb          	endbr32 
   10f57:	55                   	push   %ebp
   10f58:	89 e5                	mov    %esp,%ebp
   10f5a:	83 ec 10             	sub    $0x10,%esp
   10f5d:	eb 15                	jmp    10f74 <__cio_puts_at+0x21>
   10f5f:	ff 75 fc             	pushl  -0x4(%ebp)
   10f62:	ff 75 0c             	pushl  0xc(%ebp)
   10f65:	ff 75 08             	pushl  0x8(%ebp)
   10f68:	e8 68 fe ff ff       	call   10dd5 <__cio_putchar_at>
   10f6d:	83 c4 0c             	add    $0xc,%esp
   10f70:	83 45 08 01          	addl   $0x1,0x8(%ebp)
   10f74:	8b 45 10             	mov    0x10(%ebp),%eax
   10f77:	8d 50 01             	lea    0x1(%eax),%edx
   10f7a:	89 55 10             	mov    %edx,0x10(%ebp)
   10f7d:	0f b6 00             	movzbl (%eax),%eax
   10f80:	0f be c0             	movsbl %al,%eax
   10f83:	89 45 fc             	mov    %eax,-0x4(%ebp)
   10f86:	83 7d fc 00          	cmpl   $0x0,-0x4(%ebp)
   10f8a:	74 0a                	je     10f96 <__cio_puts_at+0x43>
   10f8c:	a1 98 ca 01 00       	mov    0x1ca98,%eax
   10f91:	39 45 08             	cmp    %eax,0x8(%ebp)
   10f94:	76 c9                	jbe    10f5f <__cio_puts_at+0xc>
   10f96:	90                   	nop
   10f97:	c9                   	leave  
   10f98:	c3                   	ret    

00010f99 <__cio_puts>:
   10f99:	f3 0f 1e fb          	endbr32 
   10f9d:	55                   	push   %ebp
   10f9e:	89 e5                	mov    %esp,%ebp
   10fa0:	83 ec 18             	sub    $0x18,%esp
   10fa3:	eb 0e                	jmp    10fb3 <__cio_puts+0x1a>
   10fa5:	83 ec 0c             	sub    $0xc,%esp
   10fa8:	ff 75 f4             	pushl  -0xc(%ebp)
   10fab:	e8 a1 fe ff ff       	call   10e51 <__cio_putchar>
   10fb0:	83 c4 10             	add    $0x10,%esp
   10fb3:	8b 45 08             	mov    0x8(%ebp),%eax
   10fb6:	8d 50 01             	lea    0x1(%eax),%edx
   10fb9:	89 55 08             	mov    %edx,0x8(%ebp)
   10fbc:	0f b6 00             	movzbl (%eax),%eax
   10fbf:	0f be c0             	movsbl %al,%eax
   10fc2:	89 45 f4             	mov    %eax,-0xc(%ebp)
   10fc5:	83 7d f4 00          	cmpl   $0x0,-0xc(%ebp)
   10fc9:	75 da                	jne    10fa5 <__cio_puts+0xc>
   10fcb:	90                   	nop
   10fcc:	90                   	nop
   10fcd:	c9                   	leave  
   10fce:	c3                   	ret    

00010fcf <__cio_write>:
   10fcf:	f3 0f 1e fb          	endbr32 
   10fd3:	55                   	push   %ebp
   10fd4:	89 e5                	mov    %esp,%ebp
   10fd6:	83 ec 18             	sub    $0x18,%esp
   10fd9:	c7 45 f4 00 00 00 00 	movl   $0x0,-0xc(%ebp)
   10fe0:	eb 1e                	jmp    11000 <__cio_write+0x31>
   10fe2:	8b 55 f4             	mov    -0xc(%ebp),%edx
   10fe5:	8b 45 08             	mov    0x8(%ebp),%eax
   10fe8:	01 d0                	add    %edx,%eax
   10fea:	0f b6 00             	movzbl (%eax),%eax
   10fed:	0f be c0             	movsbl %al,%eax
   10ff0:	83 ec 0c             	sub    $0xc,%esp
   10ff3:	50                   	push   %eax
   10ff4:	e8 58 fe ff ff       	call   10e51 <__cio_putchar>
   10ff9:	83 c4 10             	add    $0x10,%esp
   10ffc:	83 45 f4 01          	addl   $0x1,-0xc(%ebp)
   11000:	8b 45 f4             	mov    -0xc(%ebp),%eax
   11003:	3b 45 0c             	cmp    0xc(%ebp),%eax
   11006:	7c da                	jl     10fe2 <__cio_write+0x13>
   11008:	90                   	nop
   11009:	90                   	nop
   1100a:	c9                   	leave  
   1100b:	c3                   	ret    

0001100c <__cio_clearscroll>:
   1100c:	f3 0f 1e fb          	endbr32 
   11010:	55                   	push   %ebp
   11011:	89 e5                	mov    %esp,%ebp
   11013:	83 ec 10             	sub    $0x10,%esp
   11016:	8b 15 94 ca 01 00    	mov    0x1ca94,%edx
   1101c:	a1 b8 ca 01 00       	mov    0x1cab8,%eax
   11021:	29 c2                	sub    %eax,%edx
   11023:	89 d0                	mov    %edx,%eax
   11025:	83 c0 01             	add    $0x1,%eax
   11028:	89 45 f0             	mov    %eax,-0x10(%ebp)
   1102b:	a1 a8 ca 01 00       	mov    0x1caa8,%eax
   11030:	89 45 fc             	mov    %eax,-0x4(%ebp)
   11033:	eb 47                	jmp    1107c <__cio_clearscroll+0x70>
   11035:	8b 55 fc             	mov    -0x4(%ebp),%edx
   11038:	89 d0                	mov    %edx,%eax
   1103a:	c1 e0 02             	shl    $0x2,%eax
   1103d:	01 d0                	add    %edx,%eax
   1103f:	c1 e0 04             	shl    $0x4,%eax
   11042:	89 c2                	mov    %eax,%edx
   11044:	a1 b8 ca 01 00       	mov    0x1cab8,%eax
   11049:	01 d0                	add    %edx,%eax
   1104b:	05 00 c0 05 00       	add    $0x5c000,%eax
   11050:	01 c0                	add    %eax,%eax
   11052:	89 45 f4             	mov    %eax,-0xc(%ebp)
   11055:	c7 45 f8 00 00 00 00 	movl   $0x0,-0x8(%ebp)
   1105c:	eb 12                	jmp    11070 <__cio_clearscroll+0x64>
   1105e:	8b 45 f4             	mov    -0xc(%ebp),%eax
   11061:	8d 50 02             	lea    0x2(%eax),%edx
   11064:	89 55 f4             	mov    %edx,-0xc(%ebp)
   11067:	66 c7 00 20 07       	movw   $0x720,(%eax)
   1106c:	83 45 f8 01          	addl   $0x1,-0x8(%ebp)
   11070:	8b 45 f8             	mov    -0x8(%ebp),%eax
   11073:	3b 45 f0             	cmp    -0x10(%ebp),%eax
   11076:	72 e6                	jb     1105e <__cio_clearscroll+0x52>
   11078:	83 45 fc 01          	addl   $0x1,-0x4(%ebp)
   1107c:	a1 a4 ca 01 00       	mov    0x1caa4,%eax
   11081:	39 45 fc             	cmp    %eax,-0x4(%ebp)
   11084:	76 af                	jbe    11035 <__cio_clearscroll+0x29>
   11086:	90                   	nop
   11087:	90                   	nop
   11088:	c9                   	leave  
   11089:	c3                   	ret    

0001108a <__cio_clearscreen>:
   1108a:	f3 0f 1e fb          	endbr32 
   1108e:	55                   	push   %ebp
   1108f:	89 e5                	mov    %esp,%ebp
   11091:	83 ec 10             	sub    $0x10,%esp
   11094:	8b 15 a0 ca 01 00    	mov    0x1caa0,%edx
   1109a:	89 d0                	mov    %edx,%eax
   1109c:	c1 e0 02             	shl    $0x2,%eax
   1109f:	01 d0                	add    %edx,%eax
   110a1:	c1 e0 04             	shl    $0x4,%eax
   110a4:	89 c2                	mov    %eax,%edx
   110a6:	a1 ac ca 01 00       	mov    0x1caac,%eax
   110ab:	01 d0                	add    %edx,%eax
   110ad:	05 00 c0 05 00       	add    $0x5c000,%eax
   110b2:	01 c0                	add    %eax,%eax
   110b4:	89 45 fc             	mov    %eax,-0x4(%ebp)
   110b7:	8b 15 b4 ca 01 00    	mov    0x1cab4,%edx
   110bd:	a1 a0 ca 01 00       	mov    0x1caa0,%eax
   110c2:	29 c2                	sub    %eax,%edx
   110c4:	89 d0                	mov    %edx,%eax
   110c6:	8d 48 01             	lea    0x1(%eax),%ecx
   110c9:	8b 15 98 ca 01 00    	mov    0x1ca98,%edx
   110cf:	a1 ac ca 01 00       	mov    0x1caac,%eax
   110d4:	29 c2                	sub    %eax,%edx
   110d6:	89 d0                	mov    %edx,%eax
   110d8:	83 c0 01             	add    $0x1,%eax
   110db:	0f af c1             	imul   %ecx,%eax
   110de:	89 45 f8             	mov    %eax,-0x8(%ebp)
   110e1:	eb 12                	jmp    110f5 <__cio_clearscreen+0x6b>
   110e3:	8b 45 fc             	mov    -0x4(%ebp),%eax
   110e6:	8d 50 02             	lea    0x2(%eax),%edx
   110e9:	89 55 fc             	mov    %edx,-0x4(%ebp)
   110ec:	66 c7 00 20 07       	movw   $0x720,(%eax)
   110f1:	83 6d f8 01          	subl   $0x1,-0x8(%ebp)
   110f5:	83 7d f8 00          	cmpl   $0x0,-0x8(%ebp)
   110f9:	75 e8                	jne    110e3 <__cio_clearscreen+0x59>
   110fb:	90                   	nop
   110fc:	90                   	nop
   110fd:	c9                   	leave  
   110fe:	c3                   	ret    

000110ff <__cio_scroll>:
   110ff:	f3 0f 1e fb          	endbr32 
   11103:	55                   	push   %ebp
   11104:	89 e5                	mov    %esp,%ebp
   11106:	83 ec 28             	sub    $0x28,%esp
   11109:	8b 15 94 ca 01 00    	mov    0x1ca94,%edx
   1110f:	a1 b8 ca 01 00       	mov    0x1cab8,%eax
   11114:	29 c2                	sub    %eax,%edx
   11116:	89 d0                	mov    %edx,%eax
   11118:	83 c0 01             	add    $0x1,%eax
   1111b:	89 45 e4             	mov    %eax,-0x1c(%ebp)
   1111e:	8b 15 a4 ca 01 00    	mov    0x1caa4,%edx
   11124:	a1 a8 ca 01 00       	mov    0x1caa8,%eax
   11129:	29 c2                	sub    %eax,%edx
   1112b:	89 d0                	mov    %edx,%eax
   1112d:	39 45 08             	cmp    %eax,0x8(%ebp)
   11130:	76 23                	jbe    11155 <__cio_scroll+0x56>
   11132:	e8 d5 fe ff ff       	call   1100c <__cio_clearscroll>
   11137:	a1 b8 ca 01 00       	mov    0x1cab8,%eax
   1113c:	a3 9c ca 01 00       	mov    %eax,0x1ca9c
   11141:	a1 a8 ca 01 00       	mov    0x1caa8,%eax
   11146:	a3 b0 ca 01 00       	mov    %eax,0x1cab0
   1114b:	e8 83 fa ff ff       	call   10bd3 <__c_setcursor>
   11150:	e9 ea 00 00 00       	jmp    1123f <__cio_scroll+0x140>
   11155:	a1 a8 ca 01 00       	mov    0x1caa8,%eax
   1115a:	89 45 ec             	mov    %eax,-0x14(%ebp)
   1115d:	eb 76                	jmp    111d5 <__cio_scroll+0xd6>
   1115f:	8b 55 ec             	mov    -0x14(%ebp),%edx
   11162:	8b 45 08             	mov    0x8(%ebp),%eax
   11165:	01 c2                	add    %eax,%edx
   11167:	89 d0                	mov    %edx,%eax
   11169:	c1 e0 02             	shl    $0x2,%eax
   1116c:	01 d0                	add    %edx,%eax
   1116e:	c1 e0 04             	shl    $0x4,%eax
   11171:	89 c2                	mov    %eax,%edx
   11173:	a1 b8 ca 01 00       	mov    0x1cab8,%eax
   11178:	01 d0                	add    %edx,%eax
   1117a:	05 00 c0 05 00       	add    $0x5c000,%eax
   1117f:	01 c0                	add    %eax,%eax
   11181:	89 45 f4             	mov    %eax,-0xc(%ebp)
   11184:	8b 55 ec             	mov    -0x14(%ebp),%edx
   11187:	89 d0                	mov    %edx,%eax
   11189:	c1 e0 02             	shl    $0x2,%eax
   1118c:	01 d0                	add    %edx,%eax
   1118e:	c1 e0 04             	shl    $0x4,%eax
   11191:	89 c2                	mov    %eax,%edx
   11193:	a1 b8 ca 01 00       	mov    0x1cab8,%eax
   11198:	01 d0                	add    %edx,%eax
   1119a:	05 00 c0 05 00       	add    $0x5c000,%eax
   1119f:	01 c0                	add    %eax,%eax
   111a1:	89 45 f0             	mov    %eax,-0x10(%ebp)
   111a4:	c7 45 e8 00 00 00 00 	movl   $0x0,-0x18(%ebp)
   111ab:	eb 1c                	jmp    111c9 <__cio_scroll+0xca>
   111ad:	8b 55 f4             	mov    -0xc(%ebp),%edx
   111b0:	8d 42 02             	lea    0x2(%edx),%eax
   111b3:	89 45 f4             	mov    %eax,-0xc(%ebp)
   111b6:	8b 45 f0             	mov    -0x10(%ebp),%eax
   111b9:	8d 48 02             	lea    0x2(%eax),%ecx
   111bc:	89 4d f0             	mov    %ecx,-0x10(%ebp)
   111bf:	0f b7 12             	movzwl (%edx),%edx
   111c2:	66 89 10             	mov    %dx,(%eax)
   111c5:	83 45 e8 01          	addl   $0x1,-0x18(%ebp)
   111c9:	8b 45 e8             	mov    -0x18(%ebp),%eax
   111cc:	3b 45 e4             	cmp    -0x1c(%ebp),%eax
   111cf:	7c dc                	jl     111ad <__cio_scroll+0xae>
   111d1:	83 45 ec 01          	addl   $0x1,-0x14(%ebp)
   111d5:	a1 a4 ca 01 00       	mov    0x1caa4,%eax
   111da:	2b 45 08             	sub    0x8(%ebp),%eax
   111dd:	89 c2                	mov    %eax,%edx
   111df:	8b 45 ec             	mov    -0x14(%ebp),%eax
   111e2:	39 c2                	cmp    %eax,%edx
   111e4:	0f 83 75 ff ff ff    	jae    1115f <__cio_scroll+0x60>
   111ea:	eb 47                	jmp    11233 <__cio_scroll+0x134>
   111ec:	8b 55 ec             	mov    -0x14(%ebp),%edx
   111ef:	89 d0                	mov    %edx,%eax
   111f1:	c1 e0 02             	shl    $0x2,%eax
   111f4:	01 d0                	add    %edx,%eax
   111f6:	c1 e0 04             	shl    $0x4,%eax
   111f9:	89 c2                	mov    %eax,%edx
   111fb:	a1 b8 ca 01 00       	mov    0x1cab8,%eax
   11200:	01 d0                	add    %edx,%eax
   11202:	05 00 c0 05 00       	add    $0x5c000,%eax
   11207:	01 c0                	add    %eax,%eax
   11209:	89 45 f0             	mov    %eax,-0x10(%ebp)
   1120c:	c7 45 e8 00 00 00 00 	movl   $0x0,-0x18(%ebp)
   11213:	eb 12                	jmp    11227 <__cio_scroll+0x128>
   11215:	8b 45 f0             	mov    -0x10(%ebp),%eax
   11218:	8d 50 02             	lea    0x2(%eax),%edx
   1121b:	89 55 f0             	mov    %edx,-0x10(%ebp)
   1121e:	66 c7 00 20 07       	movw   $0x720,(%eax)
   11223:	83 45 e8 01          	addl   $0x1,-0x18(%ebp)
   11227:	8b 45 e8             	mov    -0x18(%ebp),%eax
   1122a:	3b 45 e4             	cmp    -0x1c(%ebp),%eax
   1122d:	7c e6                	jl     11215 <__cio_scroll+0x116>
   1122f:	83 45 ec 01          	addl   $0x1,-0x14(%ebp)
   11233:	8b 55 ec             	mov    -0x14(%ebp),%edx
   11236:	a1 a4 ca 01 00       	mov    0x1caa4,%eax
   1123b:	39 c2                	cmp    %eax,%edx
   1123d:	76 ad                	jbe    111ec <__cio_scroll+0xed>
   1123f:	c9                   	leave  
   11240:	c3                   	ret    

00011241 <pad>:
   11241:	f3 0f 1e fb          	endbr32 
   11245:	55                   	push   %ebp
   11246:	89 e5                	mov    %esp,%ebp
   11248:	83 ec 08             	sub    $0x8,%esp
   1124b:	eb 39                	jmp    11286 <pad+0x45>
   1124d:	83 7d 08 ff          	cmpl   $0xffffffff,0x8(%ebp)
   11251:	75 06                	jne    11259 <pad+0x18>
   11253:	83 7d 0c ff          	cmpl   $0xffffffff,0xc(%ebp)
   11257:	74 1a                	je     11273 <pad+0x32>
   11259:	8b 4d 14             	mov    0x14(%ebp),%ecx
   1125c:	8b 55 0c             	mov    0xc(%ebp),%edx
   1125f:	8b 45 08             	mov    0x8(%ebp),%eax
   11262:	51                   	push   %ecx
   11263:	52                   	push   %edx
   11264:	50                   	push   %eax
   11265:	e8 6b fb ff ff       	call   10dd5 <__cio_putchar_at>
   1126a:	83 c4 0c             	add    $0xc,%esp
   1126d:	83 45 08 01          	addl   $0x1,0x8(%ebp)
   11271:	eb 0f                	jmp    11282 <pad+0x41>
   11273:	8b 45 14             	mov    0x14(%ebp),%eax
   11276:	83 ec 0c             	sub    $0xc,%esp
   11279:	50                   	push   %eax
   1127a:	e8 d2 fb ff ff       	call   10e51 <__cio_putchar>
   1127f:	83 c4 10             	add    $0x10,%esp
   11282:	83 6d 10 01          	subl   $0x1,0x10(%ebp)
   11286:	83 7d 10 00          	cmpl   $0x0,0x10(%ebp)
   1128a:	7f c1                	jg     1124d <pad+0xc>
   1128c:	8b 45 08             	mov    0x8(%ebp),%eax
   1128f:	c9                   	leave  
   11290:	c3                   	ret    

00011291 <padstr>:
   11291:	f3 0f 1e fb          	endbr32 
   11295:	55                   	push   %ebp
   11296:	89 e5                	mov    %esp,%ebp
   11298:	83 ec 18             	sub    $0x18,%esp
   1129b:	83 7d 14 00          	cmpl   $0x0,0x14(%ebp)
   1129f:	79 11                	jns    112b2 <padstr+0x21>
   112a1:	83 ec 0c             	sub    $0xc,%esp
   112a4:	ff 75 10             	pushl  0x10(%ebp)
   112a7:	e8 06 11 00 00       	call   123b2 <__strlen>
   112ac:	83 c4 10             	add    $0x10,%esp
   112af:	89 45 14             	mov    %eax,0x14(%ebp)
   112b2:	8b 45 18             	mov    0x18(%ebp),%eax
   112b5:	2b 45 14             	sub    0x14(%ebp),%eax
   112b8:	89 45 f4             	mov    %eax,-0xc(%ebp)
   112bb:	83 7d f4 00          	cmpl   $0x0,-0xc(%ebp)
   112bf:	7e 1d                	jle    112de <padstr+0x4d>
   112c1:	83 7d 1c 00          	cmpl   $0x0,0x1c(%ebp)
   112c5:	75 17                	jne    112de <padstr+0x4d>
   112c7:	ff 75 20             	pushl  0x20(%ebp)
   112ca:	ff 75 f4             	pushl  -0xc(%ebp)
   112cd:	ff 75 0c             	pushl  0xc(%ebp)
   112d0:	ff 75 08             	pushl  0x8(%ebp)
   112d3:	e8 69 ff ff ff       	call   11241 <pad>
   112d8:	83 c4 10             	add    $0x10,%esp
   112db:	89 45 08             	mov    %eax,0x8(%ebp)
   112de:	83 7d 08 ff          	cmpl   $0xffffffff,0x8(%ebp)
   112e2:	75 06                	jne    112ea <padstr+0x59>
   112e4:	83 7d 0c ff          	cmpl   $0xffffffff,0xc(%ebp)
   112e8:	74 1e                	je     11308 <padstr+0x77>
   112ea:	8b 55 0c             	mov    0xc(%ebp),%edx
   112ed:	8b 45 08             	mov    0x8(%ebp),%eax
   112f0:	83 ec 04             	sub    $0x4,%esp
   112f3:	ff 75 10             	pushl  0x10(%ebp)
   112f6:	52                   	push   %edx
   112f7:	50                   	push   %eax
   112f8:	e8 56 fc ff ff       	call   10f53 <__cio_puts_at>
   112fd:	83 c4 10             	add    $0x10,%esp
   11300:	8b 45 14             	mov    0x14(%ebp),%eax
   11303:	01 45 08             	add    %eax,0x8(%ebp)
   11306:	eb 0e                	jmp    11316 <padstr+0x85>
   11308:	83 ec 0c             	sub    $0xc,%esp
   1130b:	ff 75 10             	pushl  0x10(%ebp)
   1130e:	e8 86 fc ff ff       	call   10f99 <__cio_puts>
   11313:	83 c4 10             	add    $0x10,%esp
   11316:	83 7d f4 00          	cmpl   $0x0,-0xc(%ebp)
   1131a:	7e 1d                	jle    11339 <padstr+0xa8>
   1131c:	83 7d 1c 00          	cmpl   $0x0,0x1c(%ebp)
   11320:	74 17                	je     11339 <padstr+0xa8>
   11322:	ff 75 20             	pushl  0x20(%ebp)
   11325:	ff 75 f4             	pushl  -0xc(%ebp)
   11328:	ff 75 0c             	pushl  0xc(%ebp)
   1132b:	ff 75 08             	pushl  0x8(%ebp)
   1132e:	e8 0e ff ff ff       	call   11241 <pad>
   11333:	83 c4 10             	add    $0x10,%esp
   11336:	89 45 08             	mov    %eax,0x8(%ebp)
   11339:	8b 45 08             	mov    0x8(%ebp),%eax
   1133c:	c9                   	leave  
   1133d:	c3                   	ret    

0001133e <__c_do_printf>:
   1133e:	f3 0f 1e fb          	endbr32 
   11342:	55                   	push   %ebp
   11343:	89 e5                	mov    %esp,%ebp
   11345:	83 ec 38             	sub    $0x38,%esp
   11348:	8b 45 10             	mov    0x10(%ebp),%eax
   1134b:	8b 00                	mov    (%eax),%eax
   1134d:	89 45 f4             	mov    %eax,-0xc(%ebp)
   11350:	8b 45 10             	mov    0x10(%ebp),%eax
   11353:	83 c0 04             	add    $0x4,%eax
   11356:	89 45 f0             	mov    %eax,-0x10(%ebp)
   11359:	e9 57 02 00 00       	jmp    115b5 <__c_do_printf+0x277>
   1135e:	80 7d ef 25          	cmpb   $0x25,-0x11(%ebp)
   11362:	0f 85 f5 01 00 00    	jne    1155d <__c_do_printf+0x21f>
   11368:	c7 45 e8 00 00 00 00 	movl   $0x0,-0x18(%ebp)
   1136f:	c7 45 e0 20 00 00 00 	movl   $0x20,-0x20(%ebp)
   11376:	c7 45 e4 00 00 00 00 	movl   $0x0,-0x1c(%ebp)
   1137d:	8b 45 f4             	mov    -0xc(%ebp),%eax
   11380:	8d 50 01             	lea    0x1(%eax),%edx
   11383:	89 55 f4             	mov    %edx,-0xc(%ebp)
   11386:	0f b6 00             	movzbl (%eax),%eax
   11389:	88 45 ef             	mov    %al,-0x11(%ebp)
   1138c:	80 7d ef 2d          	cmpb   $0x2d,-0x11(%ebp)
   11390:	75 16                	jne    113a8 <__c_do_printf+0x6a>
   11392:	c7 45 e8 01 00 00 00 	movl   $0x1,-0x18(%ebp)
   11399:	8b 45 f4             	mov    -0xc(%ebp),%eax
   1139c:	8d 50 01             	lea    0x1(%eax),%edx
   1139f:	89 55 f4             	mov    %edx,-0xc(%ebp)
   113a2:	0f b6 00             	movzbl (%eax),%eax
   113a5:	88 45 ef             	mov    %al,-0x11(%ebp)
   113a8:	80 7d ef 30          	cmpb   $0x30,-0x11(%ebp)
   113ac:	75 40                	jne    113ee <__c_do_printf+0xb0>
   113ae:	c7 45 e0 30 00 00 00 	movl   $0x30,-0x20(%ebp)
   113b5:	8b 45 f4             	mov    -0xc(%ebp),%eax
   113b8:	8d 50 01             	lea    0x1(%eax),%edx
   113bb:	89 55 f4             	mov    %edx,-0xc(%ebp)
   113be:	0f b6 00             	movzbl (%eax),%eax
   113c1:	88 45 ef             	mov    %al,-0x11(%ebp)
   113c4:	eb 28                	jmp    113ee <__c_do_printf+0xb0>
   113c6:	8b 55 e4             	mov    -0x1c(%ebp),%edx
   113c9:	89 d0                	mov    %edx,%eax
   113cb:	c1 e0 02             	shl    $0x2,%eax
   113ce:	01 d0                	add    %edx,%eax
   113d0:	01 c0                	add    %eax,%eax
   113d2:	89 45 e4             	mov    %eax,-0x1c(%ebp)
   113d5:	0f be 45 ef          	movsbl -0x11(%ebp),%eax
   113d9:	83 e8 30             	sub    $0x30,%eax
   113dc:	01 45 e4             	add    %eax,-0x1c(%ebp)
   113df:	8b 45 f4             	mov    -0xc(%ebp),%eax
   113e2:	8d 50 01             	lea    0x1(%eax),%edx
   113e5:	89 55 f4             	mov    %edx,-0xc(%ebp)
   113e8:	0f b6 00             	movzbl (%eax),%eax
   113eb:	88 45 ef             	mov    %al,-0x11(%ebp)
   113ee:	80 7d ef 2f          	cmpb   $0x2f,-0x11(%ebp)
   113f2:	7e 06                	jle    113fa <__c_do_printf+0xbc>
   113f4:	80 7d ef 39          	cmpb   $0x39,-0x11(%ebp)
   113f8:	7e cc                	jle    113c6 <__c_do_printf+0x88>
   113fa:	0f be 45 ef          	movsbl -0x11(%ebp),%eax
   113fe:	83 e8 63             	sub    $0x63,%eax
   11401:	83 f8 15             	cmp    $0x15,%eax
   11404:	0f 87 ab 01 00 00    	ja     115b5 <__c_do_printf+0x277>
   1140a:	8b 04 85 3c 77 01 00 	mov    0x1773c(,%eax,4),%eax
   11411:	3e ff e0             	notrack jmp *%eax
   11414:	8b 45 f0             	mov    -0x10(%ebp),%eax
   11417:	8d 50 04             	lea    0x4(%eax),%edx
   1141a:	89 55 f0             	mov    %edx,-0x10(%ebp)
   1141d:	8b 00                	mov    (%eax),%eax
   1141f:	88 45 ef             	mov    %al,-0x11(%ebp)
   11422:	0f b6 45 ef          	movzbl -0x11(%ebp),%eax
   11426:	88 45 cc             	mov    %al,-0x34(%ebp)
   11429:	c6 45 cd 00          	movb   $0x0,-0x33(%ebp)
   1142d:	83 ec 04             	sub    $0x4,%esp
   11430:	ff 75 e0             	pushl  -0x20(%ebp)
   11433:	ff 75 e8             	pushl  -0x18(%ebp)
   11436:	ff 75 e4             	pushl  -0x1c(%ebp)
   11439:	6a 01                	push   $0x1
   1143b:	8d 45 cc             	lea    -0x34(%ebp),%eax
   1143e:	50                   	push   %eax
   1143f:	ff 75 0c             	pushl  0xc(%ebp)
   11442:	ff 75 08             	pushl  0x8(%ebp)
   11445:	e8 47 fe ff ff       	call   11291 <padstr>
   1144a:	83 c4 20             	add    $0x20,%esp
   1144d:	89 45 08             	mov    %eax,0x8(%ebp)
   11450:	e9 60 01 00 00       	jmp    115b5 <__c_do_printf+0x277>
   11455:	8b 45 f0             	mov    -0x10(%ebp),%eax
   11458:	8d 50 04             	lea    0x4(%eax),%edx
   1145b:	89 55 f0             	mov    %edx,-0x10(%ebp)
   1145e:	8b 00                	mov    (%eax),%eax
   11460:	83 ec 08             	sub    $0x8,%esp
   11463:	50                   	push   %eax
   11464:	8d 45 cc             	lea    -0x34(%ebp),%eax
   11467:	50                   	push   %eax
   11468:	e8 94 13 00 00       	call   12801 <__cvtdec>
   1146d:	83 c4 10             	add    $0x10,%esp
   11470:	89 45 dc             	mov    %eax,-0x24(%ebp)
   11473:	83 ec 04             	sub    $0x4,%esp
   11476:	ff 75 e0             	pushl  -0x20(%ebp)
   11479:	ff 75 e8             	pushl  -0x18(%ebp)
   1147c:	ff 75 e4             	pushl  -0x1c(%ebp)
   1147f:	ff 75 dc             	pushl  -0x24(%ebp)
   11482:	8d 45 cc             	lea    -0x34(%ebp),%eax
   11485:	50                   	push   %eax
   11486:	ff 75 0c             	pushl  0xc(%ebp)
   11489:	ff 75 08             	pushl  0x8(%ebp)
   1148c:	e8 00 fe ff ff       	call   11291 <padstr>
   11491:	83 c4 20             	add    $0x20,%esp
   11494:	89 45 08             	mov    %eax,0x8(%ebp)
   11497:	e9 19 01 00 00       	jmp    115b5 <__c_do_printf+0x277>
   1149c:	8b 45 f0             	mov    -0x10(%ebp),%eax
   1149f:	8d 50 04             	lea    0x4(%eax),%edx
   114a2:	89 55 f0             	mov    %edx,-0x10(%ebp)
   114a5:	8b 00                	mov    (%eax),%eax
   114a7:	89 45 d8             	mov    %eax,-0x28(%ebp)
   114aa:	83 ec 04             	sub    $0x4,%esp
   114ad:	ff 75 e0             	pushl  -0x20(%ebp)
   114b0:	ff 75 e8             	pushl  -0x18(%ebp)
   114b3:	ff 75 e4             	pushl  -0x1c(%ebp)
   114b6:	6a ff                	push   $0xffffffff
   114b8:	ff 75 d8             	pushl  -0x28(%ebp)
   114bb:	ff 75 0c             	pushl  0xc(%ebp)
   114be:	ff 75 08             	pushl  0x8(%ebp)
   114c1:	e8 cb fd ff ff       	call   11291 <padstr>
   114c6:	83 c4 20             	add    $0x20,%esp
   114c9:	89 45 08             	mov    %eax,0x8(%ebp)
   114cc:	e9 e4 00 00 00       	jmp    115b5 <__c_do_printf+0x277>
   114d1:	8b 45 f0             	mov    -0x10(%ebp),%eax
   114d4:	8d 50 04             	lea    0x4(%eax),%edx
   114d7:	89 55 f0             	mov    %edx,-0x10(%ebp)
   114da:	8b 00                	mov    (%eax),%eax
   114dc:	83 ec 08             	sub    $0x8,%esp
   114df:	50                   	push   %eax
   114e0:	8d 45 cc             	lea    -0x34(%ebp),%eax
   114e3:	50                   	push   %eax
   114e4:	e8 5f 13 00 00       	call   12848 <__cvthex>
   114e9:	83 c4 10             	add    $0x10,%esp
   114ec:	89 45 dc             	mov    %eax,-0x24(%ebp)
   114ef:	83 ec 04             	sub    $0x4,%esp
   114f2:	ff 75 e0             	pushl  -0x20(%ebp)
   114f5:	ff 75 e8             	pushl  -0x18(%ebp)
   114f8:	ff 75 e4             	pushl  -0x1c(%ebp)
   114fb:	ff 75 dc             	pushl  -0x24(%ebp)
   114fe:	8d 45 cc             	lea    -0x34(%ebp),%eax
   11501:	50                   	push   %eax
   11502:	ff 75 0c             	pushl  0xc(%ebp)
   11505:	ff 75 08             	pushl  0x8(%ebp)
   11508:	e8 84 fd ff ff       	call   11291 <padstr>
   1150d:	83 c4 20             	add    $0x20,%esp
   11510:	89 45 08             	mov    %eax,0x8(%ebp)
   11513:	e9 9d 00 00 00       	jmp    115b5 <__c_do_printf+0x277>
   11518:	8b 45 f0             	mov    -0x10(%ebp),%eax
   1151b:	8d 50 04             	lea    0x4(%eax),%edx
   1151e:	89 55 f0             	mov    %edx,-0x10(%ebp)
   11521:	8b 00                	mov    (%eax),%eax
   11523:	83 ec 08             	sub    $0x8,%esp
   11526:	50                   	push   %eax
   11527:	8d 45 cc             	lea    -0x34(%ebp),%eax
   1152a:	50                   	push   %eax
   1152b:	e8 97 13 00 00       	call   128c7 <__cvtoct>
   11530:	83 c4 10             	add    $0x10,%esp
   11533:	89 45 dc             	mov    %eax,-0x24(%ebp)
   11536:	83 ec 04             	sub    $0x4,%esp
   11539:	ff 75 e0             	pushl  -0x20(%ebp)
   1153c:	ff 75 e8             	pushl  -0x18(%ebp)
   1153f:	ff 75 e4             	pushl  -0x1c(%ebp)
   11542:	ff 75 dc             	pushl  -0x24(%ebp)
   11545:	8d 45 cc             	lea    -0x34(%ebp),%eax
   11548:	50                   	push   %eax
   11549:	ff 75 0c             	pushl  0xc(%ebp)
   1154c:	ff 75 08             	pushl  0x8(%ebp)
   1154f:	e8 3d fd ff ff       	call   11291 <padstr>
   11554:	83 c4 20             	add    $0x20,%esp
   11557:	89 45 08             	mov    %eax,0x8(%ebp)
   1155a:	90                   	nop
   1155b:	eb 58                	jmp    115b5 <__c_do_printf+0x277>
   1155d:	83 7d 08 ff          	cmpl   $0xffffffff,0x8(%ebp)
   11561:	75 06                	jne    11569 <__c_do_printf+0x22b>
   11563:	83 7d 0c ff          	cmpl   $0xffffffff,0xc(%ebp)
   11567:	74 3c                	je     115a5 <__c_do_printf+0x267>
   11569:	0f be 4d ef          	movsbl -0x11(%ebp),%ecx
   1156d:	8b 55 0c             	mov    0xc(%ebp),%edx
   11570:	8b 45 08             	mov    0x8(%ebp),%eax
   11573:	83 ec 04             	sub    $0x4,%esp
   11576:	51                   	push   %ecx
   11577:	52                   	push   %edx
   11578:	50                   	push   %eax
   11579:	e8 57 f8 ff ff       	call   10dd5 <__cio_putchar_at>
   1157e:	83 c4 10             	add    $0x10,%esp
   11581:	0f be 45 ef          	movsbl -0x11(%ebp),%eax
   11585:	83 f8 0a             	cmp    $0xa,%eax
   11588:	74 07                	je     11591 <__c_do_printf+0x253>
   1158a:	83 f8 0d             	cmp    $0xd,%eax
   1158d:	74 06                	je     11595 <__c_do_printf+0x257>
   1158f:	eb 0e                	jmp    1159f <__c_do_printf+0x261>
   11591:	83 45 0c 01          	addl   $0x1,0xc(%ebp)
   11595:	a1 b8 ca 01 00       	mov    0x1cab8,%eax
   1159a:	89 45 08             	mov    %eax,0x8(%ebp)
   1159d:	eb 04                	jmp    115a3 <__c_do_printf+0x265>
   1159f:	83 45 08 01          	addl   $0x1,0x8(%ebp)
   115a3:	eb 10                	jmp    115b5 <__c_do_printf+0x277>
   115a5:	0f be 45 ef          	movsbl -0x11(%ebp),%eax
   115a9:	83 ec 0c             	sub    $0xc,%esp
   115ac:	50                   	push   %eax
   115ad:	e8 9f f8 ff ff       	call   10e51 <__cio_putchar>
   115b2:	83 c4 10             	add    $0x10,%esp
   115b5:	8b 45 f4             	mov    -0xc(%ebp),%eax
   115b8:	8d 50 01             	lea    0x1(%eax),%edx
   115bb:	89 55 f4             	mov    %edx,-0xc(%ebp)
   115be:	0f b6 00             	movzbl (%eax),%eax
   115c1:	88 45 ef             	mov    %al,-0x11(%ebp)
   115c4:	80 7d ef 00          	cmpb   $0x0,-0x11(%ebp)
   115c8:	0f 85 90 fd ff ff    	jne    1135e <__c_do_printf+0x20>
   115ce:	90                   	nop
   115cf:	90                   	nop
   115d0:	c9                   	leave  
   115d1:	c3                   	ret    

000115d2 <__cio_printf_at>:
   115d2:	f3 0f 1e fb          	endbr32 
   115d6:	55                   	push   %ebp
   115d7:	89 e5                	mov    %esp,%ebp
   115d9:	83 ec 08             	sub    $0x8,%esp
   115dc:	8b 55 0c             	mov    0xc(%ebp),%edx
   115df:	8b 45 08             	mov    0x8(%ebp),%eax
   115e2:	83 ec 04             	sub    $0x4,%esp
   115e5:	8d 4d 10             	lea    0x10(%ebp),%ecx
   115e8:	51                   	push   %ecx
   115e9:	52                   	push   %edx
   115ea:	50                   	push   %eax
   115eb:	e8 4e fd ff ff       	call   1133e <__c_do_printf>
   115f0:	83 c4 10             	add    $0x10,%esp
   115f3:	90                   	nop
   115f4:	c9                   	leave  
   115f5:	c3                   	ret    

000115f6 <__cio_printf>:
   115f6:	f3 0f 1e fb          	endbr32 
   115fa:	55                   	push   %ebp
   115fb:	89 e5                	mov    %esp,%ebp
   115fd:	83 ec 08             	sub    $0x8,%esp
   11600:	83 ec 04             	sub    $0x4,%esp
   11603:	8d 45 08             	lea    0x8(%ebp),%eax
   11606:	50                   	push   %eax
   11607:	6a ff                	push   $0xffffffff
   11609:	6a ff                	push   $0xffffffff
   1160b:	e8 2e fd ff ff       	call   1133e <__c_do_printf>
   11610:	83 c4 10             	add    $0x10,%esp
   11613:	90                   	nop
   11614:	c9                   	leave  
   11615:	c3                   	ret    

00011616 <__c_increment>:
   11616:	f3 0f 1e fb          	endbr32 
   1161a:	55                   	push   %ebp
   1161b:	89 e5                	mov    %esp,%ebp
   1161d:	83 45 08 01          	addl   $0x1,0x8(%ebp)
   11621:	b8 08 b6 01 00       	mov    $0x1b608,%eax
   11626:	39 45 08             	cmp    %eax,0x8(%ebp)
   11629:	72 07                	jb     11632 <__c_increment+0x1c>
   1162b:	c7 45 08 40 b5 01 00 	movl   $0x1b540,0x8(%ebp)
   11632:	8b 45 08             	mov    0x8(%ebp),%eax
   11635:	5d                   	pop    %ebp
   11636:	c3                   	ret    

00011637 <__c_input_scan_code>:
   11637:	f3 0f 1e fb          	endbr32 
   1163b:	55                   	push   %ebp
   1163c:	89 e5                	mov    %esp,%ebp
   1163e:	83 ec 10             	sub    $0x10,%esp
   11641:	c7 45 fc ff ff ff ff 	movl   $0xffffffff,-0x4(%ebp)
   11648:	81 65 08 ff 00 00 00 	andl   $0xff,0x8(%ebp)
   1164f:	81 7d 08 b6 00 00 00 	cmpl   $0xb6,0x8(%ebp)
   11656:	74 54                	je     116ac <__c_input_scan_code+0x75>
   11658:	81 7d 08 b6 00 00 00 	cmpl   $0xb6,0x8(%ebp)
   1165f:	7f 72                	jg     116d3 <__c_input_scan_code+0x9c>
   11661:	81 7d 08 aa 00 00 00 	cmpl   $0xaa,0x8(%ebp)
   11668:	74 42                	je     116ac <__c_input_scan_code+0x75>
   1166a:	81 7d 08 aa 00 00 00 	cmpl   $0xaa,0x8(%ebp)
   11671:	7f 60                	jg     116d3 <__c_input_scan_code+0x9c>
   11673:	81 7d 08 9d 00 00 00 	cmpl   $0x9d,0x8(%ebp)
   1167a:	74 4b                	je     116c7 <__c_input_scan_code+0x90>
   1167c:	81 7d 08 9d 00 00 00 	cmpl   $0x9d,0x8(%ebp)
   11683:	7f 4e                	jg     116d3 <__c_input_scan_code+0x9c>
   11685:	83 7d 08 36          	cmpl   $0x36,0x8(%ebp)
   11689:	74 12                	je     1169d <__c_input_scan_code+0x66>
   1168b:	83 7d 08 36          	cmpl   $0x36,0x8(%ebp)
   1168f:	7f 42                	jg     116d3 <__c_input_scan_code+0x9c>
   11691:	83 7d 08 1d          	cmpl   $0x1d,0x8(%ebp)
   11695:	74 24                	je     116bb <__c_input_scan_code+0x84>
   11697:	83 7d 08 2a          	cmpl   $0x2a,0x8(%ebp)
   1169b:	75 36                	jne    116d3 <__c_input_scan_code+0x9c>
   1169d:	c7 05 08 b6 01 00 01 	movl   $0x1,0x1b608
   116a4:	00 00 00 
   116a7:	e9 99 00 00 00       	jmp    11745 <__c_input_scan_code+0x10e>
   116ac:	c7 05 08 b6 01 00 00 	movl   $0x0,0x1b608
   116b3:	00 00 00 
   116b6:	e9 8a 00 00 00       	jmp    11745 <__c_input_scan_code+0x10e>
   116bb:	c7 05 08 b5 01 00 1f 	movl   $0x1f,0x1b508
   116c2:	00 00 00 
   116c5:	eb 7e                	jmp    11745 <__c_input_scan_code+0x10e>
   116c7:	c7 05 08 b5 01 00 ff 	movl   $0xff,0x1b508
   116ce:	00 00 00 
   116d1:	eb 72                	jmp    11745 <__c_input_scan_code+0x10e>
   116d3:	8b 45 08             	mov    0x8(%ebp),%eax
   116d6:	25 80 00 00 00       	and    $0x80,%eax
   116db:	85 c0                	test   %eax,%eax
   116dd:	75 66                	jne    11745 <__c_input_scan_code+0x10e>
   116df:	a1 08 b6 01 00       	mov    0x1b608,%eax
   116e4:	c1 e0 07             	shl    $0x7,%eax
   116e7:	89 c2                	mov    %eax,%edx
   116e9:	8b 45 08             	mov    0x8(%ebp),%eax
   116ec:	01 d0                	add    %edx,%eax
   116ee:	05 00 b4 01 00       	add    $0x1b400,%eax
   116f3:	0f b6 00             	movzbl (%eax),%eax
   116f6:	0f b6 c0             	movzbl %al,%eax
   116f9:	89 45 08             	mov    %eax,0x8(%ebp)
   116fc:	83 7d 08 ff          	cmpl   $0xffffffff,0x8(%ebp)
   11700:	74 43                	je     11745 <__c_input_scan_code+0x10e>
   11702:	a1 04 b5 01 00       	mov    0x1b504,%eax
   11707:	50                   	push   %eax
   11708:	e8 09 ff ff ff       	call   11616 <__c_increment>
   1170d:	83 c4 04             	add    $0x4,%esp
   11710:	89 45 f8             	mov    %eax,-0x8(%ebp)
   11713:	a1 08 b5 01 00       	mov    0x1b508,%eax
   11718:	23 45 08             	and    0x8(%ebp),%eax
   1171b:	89 45 fc             	mov    %eax,-0x4(%ebp)
   1171e:	a1 00 b5 01 00       	mov    0x1b500,%eax
   11723:	39 45 f8             	cmp    %eax,-0x8(%ebp)
   11726:	74 1d                	je     11745 <__c_input_scan_code+0x10e>
   11728:	8b 45 08             	mov    0x8(%ebp),%eax
   1172b:	89 c1                	mov    %eax,%ecx
   1172d:	a1 08 b5 01 00       	mov    0x1b508,%eax
   11732:	89 c2                	mov    %eax,%edx
   11734:	a1 04 b5 01 00       	mov    0x1b504,%eax
   11739:	21 ca                	and    %ecx,%edx
   1173b:	88 10                	mov    %dl,(%eax)
   1173d:	8b 45 f8             	mov    -0x8(%ebp),%eax
   11740:	a3 04 b5 01 00       	mov    %eax,0x1b504
   11745:	8b 45 fc             	mov    -0x4(%ebp),%eax
   11748:	c9                   	leave  
   11749:	c3                   	ret    

0001174a <__c_keyboard_isr>:
   1174a:	f3 0f 1e fb          	endbr32 
   1174e:	55                   	push   %ebp
   1174f:	89 e5                	mov    %esp,%ebp
   11751:	83 ec 18             	sub    $0x18,%esp
   11754:	83 ec 0c             	sub    $0xc,%esp
   11757:	6a 60                	push   $0x60
   11759:	e8 dd 55 00 00       	call   16d3b <__inb>
   1175e:	83 c4 10             	add    $0x10,%esp
   11761:	83 ec 0c             	sub    $0xc,%esp
   11764:	50                   	push   %eax
   11765:	e8 cd fe ff ff       	call   11637 <__c_input_scan_code>
   1176a:	83 c4 10             	add    $0x10,%esp
   1176d:	89 45 f4             	mov    %eax,-0xc(%ebp)
   11770:	83 7d f4 ff          	cmpl   $0xffffffff,-0xc(%ebp)
   11774:	74 19                	je     1178f <__c_keyboard_isr+0x45>
   11776:	a1 20 b5 01 00       	mov    0x1b520,%eax
   1177b:	85 c0                	test   %eax,%eax
   1177d:	74 10                	je     1178f <__c_keyboard_isr+0x45>
   1177f:	a1 20 b5 01 00       	mov    0x1b520,%eax
   11784:	83 ec 0c             	sub    $0xc,%esp
   11787:	ff 75 f4             	pushl  -0xc(%ebp)
   1178a:	ff d0                	call   *%eax
   1178c:	83 c4 10             	add    $0x10,%esp
   1178f:	83 ec 08             	sub    $0x8,%esp
   11792:	6a 20                	push   $0x20
   11794:	6a 20                	push   $0x20
   11796:	e8 c2 55 00 00       	call   16d5d <__outb>
   1179b:	83 c4 10             	add    $0x10,%esp
   1179e:	90                   	nop
   1179f:	c9                   	leave  
   117a0:	c3                   	ret    

000117a1 <__cio_getchar>:
   117a1:	f3 0f 1e fb          	endbr32 
   117a5:	55                   	push   %ebp
   117a6:	89 e5                	mov    %esp,%ebp
   117a8:	83 ec 18             	sub    $0x18,%esp
   117ab:	e8 d2 55 00 00       	call   16d82 <__get_flags>
   117b0:	25 00 02 00 00       	and    $0x200,%eax
   117b5:	89 45 f4             	mov    %eax,-0xc(%ebp)
   117b8:	eb 34                	jmp    117ee <__cio_getchar+0x4d>
   117ba:	83 7d f4 00          	cmpl   $0x0,-0xc(%ebp)
   117be:	75 2e                	jne    117ee <__cio_getchar+0x4d>
   117c0:	90                   	nop
   117c1:	83 ec 0c             	sub    $0xc,%esp
   117c4:	6a 64                	push   $0x64
   117c6:	e8 70 55 00 00       	call   16d3b <__inb>
   117cb:	83 c4 10             	add    $0x10,%esp
   117ce:	83 e0 01             	and    $0x1,%eax
   117d1:	85 c0                	test   %eax,%eax
   117d3:	74 ec                	je     117c1 <__cio_getchar+0x20>
   117d5:	83 ec 0c             	sub    $0xc,%esp
   117d8:	6a 60                	push   $0x60
   117da:	e8 5c 55 00 00       	call   16d3b <__inb>
   117df:	83 c4 10             	add    $0x10,%esp
   117e2:	83 ec 0c             	sub    $0xc,%esp
   117e5:	50                   	push   %eax
   117e6:	e8 4c fe ff ff       	call   11637 <__c_input_scan_code>
   117eb:	83 c4 10             	add    $0x10,%esp
   117ee:	8b 15 00 b5 01 00    	mov    0x1b500,%edx
   117f4:	a1 04 b5 01 00       	mov    0x1b504,%eax
   117f9:	39 c2                	cmp    %eax,%edx
   117fb:	74 bd                	je     117ba <__cio_getchar+0x19>
   117fd:	a1 00 b5 01 00       	mov    0x1b500,%eax
   11802:	0f b6 00             	movzbl (%eax),%eax
   11805:	88 45 f3             	mov    %al,-0xd(%ebp)
   11808:	a1 00 b5 01 00       	mov    0x1b500,%eax
   1180d:	83 ec 0c             	sub    $0xc,%esp
   11810:	50                   	push   %eax
   11811:	e8 00 fe ff ff       	call   11616 <__c_increment>
   11816:	83 c4 10             	add    $0x10,%esp
   11819:	a3 00 b5 01 00       	mov    %eax,0x1b500
   1181e:	80 7d f3 04          	cmpb   $0x4,-0xd(%ebp)
   11822:	74 10                	je     11834 <__cio_getchar+0x93>
   11824:	0f be 45 f3          	movsbl -0xd(%ebp),%eax
   11828:	83 ec 0c             	sub    $0xc,%esp
   1182b:	50                   	push   %eax
   1182c:	e8 20 f6 ff ff       	call   10e51 <__cio_putchar>
   11831:	83 c4 10             	add    $0x10,%esp
   11834:	0f be 45 f3          	movsbl -0xd(%ebp),%eax
   11838:	c9                   	leave  
   11839:	c3                   	ret    

0001183a <__cio_gets>:
   1183a:	f3 0f 1e fb          	endbr32 
   1183e:	55                   	push   %ebp
   1183f:	89 e5                	mov    %esp,%ebp
   11841:	83 ec 18             	sub    $0x18,%esp
   11844:	c7 45 f4 00 00 00 00 	movl   $0x0,-0xc(%ebp)
   1184b:	eb 2b                	jmp    11878 <__cio_gets+0x3e>
   1184d:	e8 4f ff ff ff       	call   117a1 <__cio_getchar>
   11852:	88 45 f3             	mov    %al,-0xd(%ebp)
   11855:	80 7d f3 04          	cmpb   $0x4,-0xd(%ebp)
   11859:	74 25                	je     11880 <__cio_gets+0x46>
   1185b:	8b 45 08             	mov    0x8(%ebp),%eax
   1185e:	8d 50 01             	lea    0x1(%eax),%edx
   11861:	89 55 08             	mov    %edx,0x8(%ebp)
   11864:	0f b6 55 f3          	movzbl -0xd(%ebp),%edx
   11868:	88 10                	mov    %dl,(%eax)
   1186a:	83 45 f4 01          	addl   $0x1,-0xc(%ebp)
   1186e:	83 6d 0c 01          	subl   $0x1,0xc(%ebp)
   11872:	80 7d f3 0a          	cmpb   $0xa,-0xd(%ebp)
   11876:	74 0b                	je     11883 <__cio_gets+0x49>
   11878:	83 7d 0c 01          	cmpl   $0x1,0xc(%ebp)
   1187c:	77 cf                	ja     1184d <__cio_gets+0x13>
   1187e:	eb 04                	jmp    11884 <__cio_gets+0x4a>
   11880:	90                   	nop
   11881:	eb 01                	jmp    11884 <__cio_gets+0x4a>
   11883:	90                   	nop
   11884:	8b 45 08             	mov    0x8(%ebp),%eax
   11887:	c6 00 00             	movb   $0x0,(%eax)
   1188a:	8b 45 f4             	mov    -0xc(%ebp),%eax
   1188d:	c9                   	leave  
   1188e:	c3                   	ret    

0001188f <__cio_input_queue>:
   1188f:	f3 0f 1e fb          	endbr32 
   11893:	55                   	push   %ebp
   11894:	89 e5                	mov    %esp,%ebp
   11896:	83 ec 10             	sub    $0x10,%esp
   11899:	8b 15 04 b5 01 00    	mov    0x1b504,%edx
   1189f:	a1 00 b5 01 00       	mov    0x1b500,%eax
   118a4:	29 c2                	sub    %eax,%edx
   118a6:	89 d0                	mov    %edx,%eax
   118a8:	89 45 fc             	mov    %eax,-0x4(%ebp)
   118ab:	83 7d fc 00          	cmpl   $0x0,-0x4(%ebp)
   118af:	79 07                	jns    118b8 <__cio_input_queue+0x29>
   118b1:	81 45 fc c8 00 00 00 	addl   $0xc8,-0x4(%ebp)
   118b8:	8b 45 fc             	mov    -0x4(%ebp),%eax
   118bb:	c9                   	leave  
   118bc:	c3                   	ret    

000118bd <__cio_init>:
   118bd:	f3 0f 1e fb          	endbr32 
   118c1:	55                   	push   %ebp
   118c2:	89 e5                	mov    %esp,%ebp
   118c4:	83 ec 08             	sub    $0x8,%esp
   118c7:	c7 05 ac ca 01 00 00 	movl   $0x0,0x1caac
   118ce:	00 00 00 
   118d1:	c7 05 a0 ca 01 00 00 	movl   $0x0,0x1caa0
   118d8:	00 00 00 
   118db:	c7 05 98 ca 01 00 4f 	movl   $0x4f,0x1ca98
   118e2:	00 00 00 
   118e5:	c7 05 b4 ca 01 00 18 	movl   $0x18,0x1cab4
   118ec:	00 00 00 
   118ef:	c7 05 b8 ca 01 00 00 	movl   $0x0,0x1cab8
   118f6:	00 00 00 
   118f9:	c7 05 a8 ca 01 00 00 	movl   $0x0,0x1caa8
   11900:	00 00 00 
   11903:	c7 05 94 ca 01 00 4f 	movl   $0x4f,0x1ca94
   1190a:	00 00 00 
   1190d:	c7 05 a4 ca 01 00 18 	movl   $0x18,0x1caa4
   11914:	00 00 00 
   11917:	a1 a0 ca 01 00       	mov    0x1caa0,%eax
   1191c:	a3 b0 ca 01 00       	mov    %eax,0x1cab0
   11921:	a1 ac ca 01 00       	mov    0x1caac,%eax
   11926:	a3 9c ca 01 00       	mov    %eax,0x1ca9c
   1192b:	e8 a3 f2 ff ff       	call   10bd3 <__c_setcursor>
   11930:	8b 45 08             	mov    0x8(%ebp),%eax
   11933:	a3 20 b5 01 00       	mov    %eax,0x1b520
   11938:	83 ec 08             	sub    $0x8,%esp
   1193b:	68 4a 17 01 00       	push   $0x1174a
   11940:	6a 21                	push   $0x21
   11942:	e8 70 02 00 00       	call   11bb7 <__install_isr>
   11947:	83 c4 10             	add    $0x10,%esp
   1194a:	90                   	nop
   1194b:	c9                   	leave  
   1194c:	c3                   	ret    

0001194d <__default_unexpected_handler>:
   1194d:	f3 0f 1e fb          	endbr32 
   11951:	55                   	push   %ebp
   11952:	89 e5                	mov    %esp,%ebp
   11954:	83 ec 08             	sub    $0x8,%esp
   11957:	83 ec 04             	sub    $0x4,%esp
   1195a:	ff 75 0c             	pushl  0xc(%ebp)
   1195d:	ff 75 08             	pushl  0x8(%ebp)
   11960:	68 94 77 01 00       	push   $0x17794
   11965:	e8 8c fc ff ff       	call   115f6 <__cio_printf>
   1196a:	83 c4 10             	add    $0x10,%esp
   1196d:	83 ec 0c             	sub    $0xc,%esp
   11970:	68 b6 77 01 00       	push   $0x177b6
   11975:	e8 06 02 00 00       	call   11b80 <__panic>
   1197a:	83 c4 10             	add    $0x10,%esp
   1197d:	90                   	nop
   1197e:	c9                   	leave  
   1197f:	c3                   	ret    

00011980 <__default_expected_handler>:
   11980:	f3 0f 1e fb          	endbr32 
   11984:	55                   	push   %ebp
   11985:	89 e5                	mov    %esp,%ebp
   11987:	83 ec 08             	sub    $0x8,%esp
   1198a:	83 ec 04             	sub    $0x4,%esp
   1198d:	ff 75 0c             	pushl  0xc(%ebp)
   11990:	ff 75 08             	pushl  0x8(%ebp)
   11993:	68 cc 77 01 00       	push   $0x177cc
   11998:	e8 59 fc ff ff       	call   115f6 <__cio_printf>
   1199d:	83 c4 10             	add    $0x10,%esp
   119a0:	83 7d 08 1f          	cmpl   $0x1f,0x8(%ebp)
   119a4:	7e 2f                	jle    119d5 <__default_expected_handler+0x55>
   119a6:	83 7d 08 2f          	cmpl   $0x2f,0x8(%ebp)
   119aa:	7f 29                	jg     119d5 <__default_expected_handler+0x55>
   119ac:	83 ec 08             	sub    $0x8,%esp
   119af:	6a 20                	push   $0x20
   119b1:	6a 20                	push   $0x20
   119b3:	e8 a5 53 00 00       	call   16d5d <__outb>
   119b8:	83 c4 10             	add    $0x10,%esp
   119bb:	83 7d 08 27          	cmpl   $0x27,0x8(%ebp)
   119bf:	7e 25                	jle    119e6 <__default_expected_handler+0x66>
   119c1:	83 ec 08             	sub    $0x8,%esp
   119c4:	6a 20                	push   $0x20
   119c6:	68 a0 00 00 00       	push   $0xa0
   119cb:	e8 8d 53 00 00       	call   16d5d <__outb>
   119d0:	83 c4 10             	add    $0x10,%esp
   119d3:	eb 11                	jmp    119e6 <__default_expected_handler+0x66>
   119d5:	83 ec 0c             	sub    $0xc,%esp
   119d8:	68 ec 77 01 00       	push   $0x177ec
   119dd:	e8 9e 01 00 00       	call   11b80 <__panic>
   119e2:	83 c4 10             	add    $0x10,%esp
   119e5:	90                   	nop
   119e6:	90                   	nop
   119e7:	c9                   	leave  
   119e8:	c3                   	ret    

000119e9 <__default_mystery_handler>:
   119e9:	f3 0f 1e fb          	endbr32 
   119ed:	55                   	push   %ebp
   119ee:	89 e5                	mov    %esp,%ebp
   119f0:	83 ec 08             	sub    $0x8,%esp
   119f3:	83 ec 08             	sub    $0x8,%esp
   119f6:	6a 20                	push   $0x20
   119f8:	6a 20                	push   $0x20
   119fa:	e8 5e 53 00 00       	call   16d5d <__outb>
   119ff:	83 c4 10             	add    $0x10,%esp
   11a02:	90                   	nop
   11a03:	c9                   	leave  
   11a04:	c3                   	ret    

00011a05 <init_pic>:
   11a05:	f3 0f 1e fb          	endbr32 
   11a09:	55                   	push   %ebp
   11a0a:	89 e5                	mov    %esp,%ebp
   11a0c:	83 ec 08             	sub    $0x8,%esp
   11a0f:	83 ec 08             	sub    $0x8,%esp
   11a12:	6a 11                	push   $0x11
   11a14:	6a 20                	push   $0x20
   11a16:	e8 42 53 00 00       	call   16d5d <__outb>
   11a1b:	83 c4 10             	add    $0x10,%esp
   11a1e:	83 ec 08             	sub    $0x8,%esp
   11a21:	6a 11                	push   $0x11
   11a23:	68 a0 00 00 00       	push   $0xa0
   11a28:	e8 30 53 00 00       	call   16d5d <__outb>
   11a2d:	83 c4 10             	add    $0x10,%esp
   11a30:	83 ec 08             	sub    $0x8,%esp
   11a33:	6a 20                	push   $0x20
   11a35:	6a 21                	push   $0x21
   11a37:	e8 21 53 00 00       	call   16d5d <__outb>
   11a3c:	83 c4 10             	add    $0x10,%esp
   11a3f:	83 ec 08             	sub    $0x8,%esp
   11a42:	6a 28                	push   $0x28
   11a44:	68 a1 00 00 00       	push   $0xa1
   11a49:	e8 0f 53 00 00       	call   16d5d <__outb>
   11a4e:	83 c4 10             	add    $0x10,%esp
   11a51:	83 ec 08             	sub    $0x8,%esp
   11a54:	6a 04                	push   $0x4
   11a56:	6a 21                	push   $0x21
   11a58:	e8 00 53 00 00       	call   16d5d <__outb>
   11a5d:	83 c4 10             	add    $0x10,%esp
   11a60:	83 ec 08             	sub    $0x8,%esp
   11a63:	6a 02                	push   $0x2
   11a65:	68 a1 00 00 00       	push   $0xa1
   11a6a:	e8 ee 52 00 00       	call   16d5d <__outb>
   11a6f:	83 c4 10             	add    $0x10,%esp
   11a72:	83 ec 08             	sub    $0x8,%esp
   11a75:	6a 01                	push   $0x1
   11a77:	6a 21                	push   $0x21
   11a79:	e8 df 52 00 00       	call   16d5d <__outb>
   11a7e:	83 c4 10             	add    $0x10,%esp
   11a81:	83 ec 08             	sub    $0x8,%esp
   11a84:	6a 01                	push   $0x1
   11a86:	68 a1 00 00 00       	push   $0xa1
   11a8b:	e8 cd 52 00 00       	call   16d5d <__outb>
   11a90:	83 c4 10             	add    $0x10,%esp
   11a93:	83 ec 08             	sub    $0x8,%esp
   11a96:	6a 00                	push   $0x0
   11a98:	6a 21                	push   $0x21
   11a9a:	e8 be 52 00 00       	call   16d5d <__outb>
   11a9f:	83 c4 10             	add    $0x10,%esp
   11aa2:	83 ec 08             	sub    $0x8,%esp
   11aa5:	6a 00                	push   $0x0
   11aa7:	68 a1 00 00 00       	push   $0xa1
   11aac:	e8 ac 52 00 00       	call   16d5d <__outb>
   11ab1:	83 c4 10             	add    $0x10,%esp
   11ab4:	90                   	nop
   11ab5:	c9                   	leave  
   11ab6:	c3                   	ret    

00011ab7 <set_idt_entry>:
   11ab7:	f3 0f 1e fb          	endbr32 
   11abb:	55                   	push   %ebp
   11abc:	89 e5                	mov    %esp,%ebp
   11abe:	83 ec 10             	sub    $0x10,%esp
   11ac1:	8b 45 08             	mov    0x8(%ebp),%eax
   11ac4:	c1 e0 03             	shl    $0x3,%eax
   11ac7:	05 00 25 00 00       	add    $0x2500,%eax
   11acc:	89 45 fc             	mov    %eax,-0x4(%ebp)
   11acf:	8b 45 0c             	mov    0xc(%ebp),%eax
   11ad2:	89 c2                	mov    %eax,%edx
   11ad4:	8b 45 fc             	mov    -0x4(%ebp),%eax
   11ad7:	66 89 10             	mov    %dx,(%eax)
   11ada:	8b 45 fc             	mov    -0x4(%ebp),%eax
   11add:	66 c7 40 02 10 00    	movw   $0x10,0x2(%eax)
   11ae3:	8b 45 fc             	mov    -0x4(%ebp),%eax
   11ae6:	66 c7 40 04 00 8e    	movw   $0x8e00,0x4(%eax)
   11aec:	8b 45 0c             	mov    0xc(%ebp),%eax
   11aef:	c1 e8 10             	shr    $0x10,%eax
   11af2:	89 c2                	mov    %eax,%edx
   11af4:	8b 45 fc             	mov    -0x4(%ebp),%eax
   11af7:	66 89 50 06          	mov    %dx,0x6(%eax)
   11afb:	90                   	nop
   11afc:	c9                   	leave  
   11afd:	c3                   	ret    

00011afe <init_idt>:
   11afe:	f3 0f 1e fb          	endbr32 
   11b02:	55                   	push   %ebp
   11b03:	89 e5                	mov    %esp,%ebp
   11b05:	83 ec 18             	sub    $0x18,%esp
   11b08:	c7 45 f4 00 00 00 00 	movl   $0x0,-0xc(%ebp)
   11b0f:	eb 2d                	jmp    11b3e <init_idt+0x40>
   11b11:	8b 45 f4             	mov    -0xc(%ebp),%eax
   11b14:	8b 04 85 00 b0 01 00 	mov    0x1b000(,%eax,4),%eax
   11b1b:	50                   	push   %eax
   11b1c:	ff 75 f4             	pushl  -0xc(%ebp)
   11b1f:	e8 93 ff ff ff       	call   11ab7 <set_idt_entry>
   11b24:	83 c4 08             	add    $0x8,%esp
   11b27:	83 ec 08             	sub    $0x8,%esp
   11b2a:	68 4d 19 01 00       	push   $0x1194d
   11b2f:	ff 75 f4             	pushl  -0xc(%ebp)
   11b32:	e8 80 00 00 00       	call   11bb7 <__install_isr>
   11b37:	83 c4 10             	add    $0x10,%esp
   11b3a:	83 45 f4 01          	addl   $0x1,-0xc(%ebp)
   11b3e:	81 7d f4 ff 00 00 00 	cmpl   $0xff,-0xc(%ebp)
   11b45:	7e ca                	jle    11b11 <init_idt+0x13>
   11b47:	83 ec 08             	sub    $0x8,%esp
   11b4a:	68 80 19 01 00       	push   $0x11980
   11b4f:	6a 21                	push   $0x21
   11b51:	e8 61 00 00 00       	call   11bb7 <__install_isr>
   11b56:	83 c4 10             	add    $0x10,%esp
   11b59:	83 ec 08             	sub    $0x8,%esp
   11b5c:	68 80 19 01 00       	push   $0x11980
   11b61:	6a 20                	push   $0x20
   11b63:	e8 4f 00 00 00       	call   11bb7 <__install_isr>
   11b68:	83 c4 10             	add    $0x10,%esp
   11b6b:	83 ec 08             	sub    $0x8,%esp
   11b6e:	68 e9 19 01 00       	push   $0x119e9
   11b73:	6a 27                	push   $0x27
   11b75:	e8 3d 00 00 00       	call   11bb7 <__install_isr>
   11b7a:	83 c4 10             	add    $0x10,%esp
   11b7d:	90                   	nop
   11b7e:	c9                   	leave  
   11b7f:	c3                   	ret    

00011b80 <__panic>:
   11b80:	f3 0f 1e fb          	endbr32 
   11b84:	55                   	push   %ebp
   11b85:	89 e5                	mov    %esp,%ebp
   11b87:	83 ec 08             	sub    $0x8,%esp
   11b8a:	fa                   	cli    
   11b8b:	83 ec 08             	sub    $0x8,%esp
   11b8e:	ff 75 08             	pushl  0x8(%ebp)
   11b91:	68 0d 78 01 00       	push   $0x1780d
   11b96:	e8 5b fa ff ff       	call   115f6 <__cio_printf>
   11b9b:	83 c4 10             	add    $0x10,%esp
   11b9e:	eb fe                	jmp    11b9e <__panic+0x1e>

00011ba0 <__init_interrupts>:
   11ba0:	f3 0f 1e fb          	endbr32 
   11ba4:	55                   	push   %ebp
   11ba5:	89 e5                	mov    %esp,%ebp
   11ba7:	83 ec 08             	sub    $0x8,%esp
   11baa:	e8 4f ff ff ff       	call   11afe <init_idt>
   11baf:	e8 51 fe ff ff       	call   11a05 <init_pic>
   11bb4:	90                   	nop
   11bb5:	c9                   	leave  
   11bb6:	c3                   	ret    

00011bb7 <__install_isr>:
   11bb7:	f3 0f 1e fb          	endbr32 
   11bbb:	55                   	push   %ebp
   11bbc:	89 e5                	mov    %esp,%ebp
   11bbe:	83 ec 10             	sub    $0x10,%esp
   11bc1:	8b 45 08             	mov    0x8(%ebp),%eax
   11bc4:	8b 04 85 c0 ca 01 00 	mov    0x1cac0(,%eax,4),%eax
   11bcb:	89 45 fc             	mov    %eax,-0x4(%ebp)
   11bce:	8b 45 08             	mov    0x8(%ebp),%eax
   11bd1:	8b 55 0c             	mov    0xc(%ebp),%edx
   11bd4:	89 14 85 c0 ca 01 00 	mov    %edx,0x1cac0(,%eax,4)
   11bdb:	8b 45 fc             	mov    -0x4(%ebp),%eax
   11bde:	c9                   	leave  
   11bdf:	c3                   	ret    

00011be0 <__delay>:
   11be0:	f3 0f 1e fb          	endbr32 
   11be4:	55                   	push   %ebp
   11be5:	89 e5                	mov    %esp,%ebp
   11be7:	83 ec 10             	sub    $0x10,%esp
   11bea:	eb 16                	jmp    11c02 <__delay+0x22>
   11bec:	c7 45 fc 00 00 00 00 	movl   $0x0,-0x4(%ebp)
   11bf3:	eb 04                	jmp    11bf9 <__delay+0x19>
   11bf5:	83 45 fc 01          	addl   $0x1,-0x4(%ebp)
   11bf9:	81 7d fc 7f 96 98 00 	cmpl   $0x98967f,-0x4(%ebp)
   11c00:	7e f3                	jle    11bf5 <__delay+0x15>
   11c02:	83 6d 08 01          	subl   $0x1,0x8(%ebp)
   11c06:	83 7d 08 00          	cmpl   $0x0,0x8(%ebp)
   11c0a:	79 e0                	jns    11bec <__delay+0xc>
   11c0c:	90                   	nop
   11c0d:	90                   	nop
   11c0e:	c9                   	leave  
   11c0f:	c3                   	ret    

00011c10 <_cmp_wakeup>:
   11c10:	f3 0f 1e fb          	endbr32 
   11c14:	55                   	push   %ebp
   11c15:	89 e5                	mov    %esp,%ebp
   11c17:	8b 45 08             	mov    0x8(%ebp),%eax
   11c1a:	3b 45 0c             	cmp    0xc(%ebp),%eax
   11c1d:	73 07                	jae    11c26 <_cmp_wakeup+0x16>
   11c1f:	b8 ff ff ff ff       	mov    $0xffffffff,%eax
   11c24:	eb 14                	jmp    11c3a <_cmp_wakeup+0x2a>
   11c26:	8b 45 08             	mov    0x8(%ebp),%eax
   11c29:	3b 45 0c             	cmp    0xc(%ebp),%eax
   11c2c:	75 07                	jne    11c35 <_cmp_wakeup+0x25>
   11c2e:	b8 00 00 00 00       	mov    $0x0,%eax
   11c33:	eb 05                	jmp    11c3a <_cmp_wakeup+0x2a>
   11c35:	b8 01 00 00 00       	mov    $0x1,%eax
   11c3a:	5d                   	pop    %ebp
   11c3b:	c3                   	ret    

00011c3c <_clk_isr>:
   11c3c:	f3 0f 1e fb          	endbr32 
   11c40:	55                   	push   %ebp
   11c41:	89 e5                	mov    %esp,%ebp
   11c43:	83 ec 18             	sub    $0x18,%esp
   11c46:	a1 0c b6 01 00       	mov    0x1b60c,%eax
   11c4b:	83 c0 01             	add    $0x1,%eax
   11c4e:	a3 0c b6 01 00       	mov    %eax,0x1b60c
   11c53:	a1 0c b6 01 00       	mov    0x1b60c,%eax
   11c58:	83 f8 64             	cmp    $0x64,%eax
   11c5b:	75 39                	jne    11c96 <_clk_isr+0x5a>
   11c5d:	c7 05 0c b6 01 00 00 	movl   $0x0,0x1b60c
   11c64:	00 00 00 
   11c67:	a1 10 b6 01 00       	mov    0x1b610,%eax
   11c6c:	83 c0 01             	add    $0x1,%eax
   11c6f:	a3 10 b6 01 00       	mov    %eax,0x1b610
   11c74:	a1 10 b6 01 00       	mov    0x1b610,%eax
   11c79:	83 e0 03             	and    $0x3,%eax
   11c7c:	0f b6 80 24 78 01 00 	movzbl 0x17824(%eax),%eax
   11c83:	0f be c0             	movsbl %al,%eax
   11c86:	83 ec 04             	sub    $0x4,%esp
   11c89:	50                   	push   %eax
   11c8a:	6a 00                	push   $0x0
   11c8c:	6a 00                	push   $0x0
   11c8e:	e8 42 f1 ff ff       	call   10dd5 <__cio_putchar_at>
   11c93:	83 c4 10             	add    $0x10,%esp
   11c96:	a1 c4 ce 01 00       	mov    0x1cec4,%eax
   11c9b:	83 c0 01             	add    $0x1,%eax
   11c9e:	a3 c4 ce 01 00       	mov    %eax,0x1cec4
   11ca3:	a1 c0 ce 01 00       	mov    0x1cec0,%eax
   11ca8:	83 ec 0c             	sub    $0xc,%esp
   11cab:	50                   	push   %eax
   11cac:	e8 af 21 00 00       	call   13e60 <_que_peek>
   11cb1:	83 c4 10             	add    $0x10,%esp
   11cb4:	89 45 f4             	mov    %eax,-0xc(%ebp)
   11cb7:	eb 36                	jmp    11cef <_clk_isr+0xb3>
   11cb9:	a1 c0 ce 01 00       	mov    0x1cec0,%eax
   11cbe:	83 ec 0c             	sub    $0xc,%esp
   11cc1:	50                   	push   %eax
   11cc2:	e8 df 20 00 00       	call   13da6 <_que_deque>
   11cc7:	83 c4 10             	add    $0x10,%esp
   11cca:	89 45 f4             	mov    %eax,-0xc(%ebp)
   11ccd:	83 ec 0c             	sub    $0xc,%esp
   11cd0:	ff 75 f4             	pushl  -0xc(%ebp)
   11cd3:	e8 a3 23 00 00       	call   1407b <_schedule>
   11cd8:	83 c4 10             	add    $0x10,%esp
   11cdb:	a1 c0 ce 01 00       	mov    0x1cec0,%eax
   11ce0:	83 ec 0c             	sub    $0xc,%esp
   11ce3:	50                   	push   %eax
   11ce4:	e8 77 21 00 00       	call   13e60 <_que_peek>
   11ce9:	83 c4 10             	add    $0x10,%esp
   11cec:	89 45 f4             	mov    %eax,-0xc(%ebp)
   11cef:	83 7d f4 00          	cmpl   $0x0,-0xc(%ebp)
   11cf3:	74 0f                	je     11d04 <_clk_isr+0xc8>
   11cf5:	8b 45 f4             	mov    -0xc(%ebp),%eax
   11cf8:	8b 50 0c             	mov    0xc(%eax),%edx
   11cfb:	a1 c4 ce 01 00       	mov    0x1cec4,%eax
   11d00:	39 c2                	cmp    %eax,%edx
   11d02:	76 b5                	jbe    11cb9 <_clk_isr+0x7d>
   11d04:	a1 b4 d2 01 00       	mov    0x1d2b4,%eax
   11d09:	0f b6 50 17          	movzbl 0x17(%eax),%edx
   11d0d:	a1 b4 d2 01 00       	mov    0x1d2b4,%eax
   11d12:	83 ea 01             	sub    $0x1,%edx
   11d15:	88 50 17             	mov    %dl,0x17(%eax)
   11d18:	a1 b4 d2 01 00       	mov    0x1d2b4,%eax
   11d1d:	0f b6 40 17          	movzbl 0x17(%eax),%eax
   11d21:	84 c0                	test   %al,%al
   11d23:	75 16                	jne    11d3b <_clk_isr+0xff>
   11d25:	a1 b4 d2 01 00       	mov    0x1d2b4,%eax
   11d2a:	83 ec 0c             	sub    $0xc,%esp
   11d2d:	50                   	push   %eax
   11d2e:	e8 48 23 00 00       	call   1407b <_schedule>
   11d33:	83 c4 10             	add    $0x10,%esp
   11d36:	e8 57 24 00 00       	call   14192 <_dispatch>
   11d3b:	83 ec 08             	sub    $0x8,%esp
   11d3e:	6a 20                	push   $0x20
   11d40:	6a 20                	push   $0x20
   11d42:	e8 16 50 00 00       	call   16d5d <__outb>
   11d47:	83 c4 10             	add    $0x10,%esp
   11d4a:	90                   	nop
   11d4b:	c9                   	leave  
   11d4c:	c3                   	ret    

00011d4d <_clk_init>:
   11d4d:	f3 0f 1e fb          	endbr32 
   11d51:	55                   	push   %ebp
   11d52:	89 e5                	mov    %esp,%ebp
   11d54:	83 ec 18             	sub    $0x18,%esp
   11d57:	83 ec 0c             	sub    $0xc,%esp
   11d5a:	68 29 78 01 00       	push   $0x17829
   11d5f:	e8 35 f2 ff ff       	call   10f99 <__cio_puts>
   11d64:	83 c4 10             	add    $0x10,%esp
   11d67:	c7 05 0c b6 01 00 63 	movl   $0x63,0x1b60c
   11d6e:	00 00 00 
   11d71:	c7 05 10 b6 01 00 00 	movl   $0x0,0x1b610
   11d78:	00 00 00 
   11d7b:	c7 05 c4 ce 01 00 00 	movl   $0x0,0x1cec4
   11d82:	00 00 00 
   11d85:	c7 45 f4 a9 04 00 00 	movl   $0x4a9,-0xc(%ebp)
   11d8c:	83 ec 08             	sub    $0x8,%esp
   11d8f:	6a 36                	push   $0x36
   11d91:	6a 43                	push   $0x43
   11d93:	e8 c5 4f 00 00       	call   16d5d <__outb>
   11d98:	83 c4 10             	add    $0x10,%esp
   11d9b:	8b 45 f4             	mov    -0xc(%ebp),%eax
   11d9e:	0f b6 c0             	movzbl %al,%eax
   11da1:	83 ec 08             	sub    $0x8,%esp
   11da4:	50                   	push   %eax
   11da5:	6a 40                	push   $0x40
   11da7:	e8 b1 4f 00 00       	call   16d5d <__outb>
   11dac:	83 c4 10             	add    $0x10,%esp
   11daf:	8b 45 f4             	mov    -0xc(%ebp),%eax
   11db2:	c1 e8 08             	shr    $0x8,%eax
   11db5:	0f b6 c0             	movzbl %al,%eax
   11db8:	83 ec 08             	sub    $0x8,%esp
   11dbb:	50                   	push   %eax
   11dbc:	6a 40                	push   $0x40
   11dbe:	e8 9a 4f 00 00       	call   16d5d <__outb>
   11dc3:	83 c4 10             	add    $0x10,%esp
   11dc6:	83 ec 0c             	sub    $0xc,%esp
   11dc9:	68 10 1c 01 00       	push   $0x11c10
   11dce:	e8 1c 1d 00 00       	call   13aef <_que_alloc>
   11dd3:	83 c4 10             	add    $0x10,%esp
   11dd6:	a3 c0 ce 01 00       	mov    %eax,0x1cec0
   11ddb:	a1 c0 ce 01 00       	mov    0x1cec0,%eax
   11de0:	85 c0                	test   %eax,%eax
   11de2:	75 3b                	jne    11e1f <_clk_init+0xd2>
   11de4:	83 ec 08             	sub    $0x8,%esp
   11de7:	6a 00                	push   $0x0
   11de9:	68 b9 00 00 00       	push   $0xb9
   11dee:	68 31 78 01 00       	push   $0x17831
   11df3:	68 68 78 01 00       	push   $0x17868
   11df8:	68 39 78 01 00       	push   $0x17839
   11dfd:	68 e0 ce 01 00       	push   $0x1cee0
   11e02:	e8 37 07 00 00       	call   1253e <__sprint>
   11e07:	83 c4 20             	add    $0x20,%esp
   11e0a:	83 ec 08             	sub    $0x8,%esp
   11e0d:	68 53 78 01 00       	push   $0x17853
   11e12:	68 e0 ce 01 00       	push   $0x1cee0
   11e17:	e8 39 0b 00 00       	call   12955 <_kpanic>
   11e1c:	83 c4 10             	add    $0x10,%esp
   11e1f:	83 ec 08             	sub    $0x8,%esp
   11e22:	68 3c 1c 01 00       	push   $0x11c3c
   11e27:	6a 20                	push   $0x20
   11e29:	e8 89 fd ff ff       	call   11bb7 <__install_isr>
   11e2e:	83 c4 10             	add    $0x10,%esp
   11e31:	83 ec 0c             	sub    $0xc,%esp
   11e34:	68 62 78 01 00       	push   $0x17862
   11e39:	e8 5b f1 ff ff       	call   10f99 <__cio_puts>
   11e3e:	83 c4 10             	add    $0x10,%esp
   11e41:	90                   	nop
   11e42:	c9                   	leave  
   11e43:	c3                   	ret    

00011e44 <_init>:
   11e44:	f3 0f 1e fb          	endbr32 
   11e48:	55                   	push   %ebp
   11e49:	89 e5                	mov    %esp,%ebp
   11e4b:	83 ec 28             	sub    $0x28,%esp
   11e4e:	e8 4d fd ff ff       	call   11ba0 <__init_interrupts>
   11e53:	83 ec 0c             	sub    $0xc,%esp
   11e56:	6a 00                	push   $0x0
   11e58:	e8 60 fa ff ff       	call   118bd <__cio_init>
   11e5d:	83 c4 10             	add    $0x10,%esp
   11e60:	6a 63                	push   $0x63
   11e62:	6a 63                	push   $0x63
   11e64:	6a 07                	push   $0x7
   11e66:	6a 00                	push   $0x0
   11e68:	e8 5e ee ff ff       	call   10ccb <__cio_setscroll>
   11e6d:	83 c4 10             	add    $0x10,%esp
   11e70:	83 ec 04             	sub    $0x4,%esp
   11e73:	68 74 78 01 00       	push   $0x17874
   11e78:	6a 06                	push   $0x6
   11e7a:	6a 00                	push   $0x0
   11e7c:	e8 d2 f0 ff ff       	call   10f53 <__cio_puts_at>
   11e81:	83 c4 10             	add    $0x10,%esp
   11e84:	83 ec 0c             	sub    $0xc,%esp
   11e87:	68 c8 78 01 00       	push   $0x178c8
   11e8c:	e8 08 f1 ff ff       	call   10f99 <__cio_puts>
   11e91:	83 c4 10             	add    $0x10,%esp
   11e94:	83 ec 0c             	sub    $0xc,%esp
   11e97:	68 ec 78 01 00       	push   $0x178ec
   11e9c:	e8 f8 f0 ff ff       	call   10f99 <__cio_puts>
   11ea1:	83 c4 10             	add    $0x10,%esp
   11ea4:	83 ec 0c             	sub    $0xc,%esp
   11ea7:	68 0d 79 01 00       	push   $0x1790d
   11eac:	e8 e8 f0 ff ff       	call   10f99 <__cio_puts>
   11eb1:	83 c4 10             	add    $0x10,%esp
   11eb4:	e8 e0 0b 00 00       	call   12a99 <_km_init>
   11eb9:	e8 d6 1b 00 00       	call   13a94 <_que_init>
   11ebe:	e8 2f 14 00 00       	call   132f2 <_proc_init>
   11ec3:	e8 74 2d 00 00       	call   14c3c <_stk_init>
   11ec8:	e8 f7 38 00 00       	call   157c4 <_sys_init>
   11ecd:	e8 02 21 00 00       	call   13fd4 <_sched_init>
   11ed2:	e8 76 fe ff ff       	call   11d4d <_clk_init>
   11ed7:	e8 e2 26 00 00       	call   145be <_sio_init>
   11edc:	e8 26 46 00 00       	call   16507 <_ahci_init>
   11ee1:	83 ec 0c             	sub    $0xc,%esp
   11ee4:	68 18 79 01 00       	push   $0x17918
   11ee9:	e8 ab f0 ff ff       	call   10f99 <__cio_puts>
   11eee:	83 c4 10             	add    $0x10,%esp
   11ef1:	83 ec 0c             	sub    $0xc,%esp
   11ef4:	68 ec 78 01 00       	push   $0x178ec
   11ef9:	e8 9b f0 ff ff       	call   10f99 <__cio_puts>
   11efe:	83 c4 10             	add    $0x10,%esp
   11f01:	83 ec 0c             	sub    $0xc,%esp
   11f04:	68 c8 00 00 00       	push   $0xc8
   11f09:	e8 d2 fc ff ff       	call   11be0 <__delay>
   11f0e:	83 c4 10             	add    $0x10,%esp
   11f11:	b8 90 6d 01 00       	mov    $0x16d90,%eax
   11f16:	89 45 e4             	mov    %eax,-0x1c(%ebp)
   11f19:	c7 45 e8 00 00 00 00 	movl   $0x0,-0x18(%ebp)
   11f20:	c7 45 f0 00 00 00 00 	movl   $0x0,-0x10(%ebp)
   11f27:	8b 45 f0             	mov    -0x10(%ebp),%eax
   11f2a:	89 45 ec             	mov    %eax,-0x14(%ebp)
   11f2d:	83 ec 04             	sub    $0x4,%esp
   11f30:	6a 01                	push   $0x1
   11f32:	6a 01                	push   $0x1
   11f34:	8d 45 e4             	lea    -0x1c(%ebp),%eax
   11f37:	50                   	push   %eax
   11f38:	e8 2d 14 00 00       	call   1336a <_proc_create>
   11f3d:	83 c4 10             	add    $0x10,%esp
   11f40:	89 45 f4             	mov    %eax,-0xc(%ebp)
   11f43:	83 7d f4 00          	cmpl   $0x0,-0xc(%ebp)
   11f47:	75 3b                	jne    11f84 <_init+0x140>
   11f49:	83 ec 08             	sub    $0x8,%esp
   11f4c:	6a 00                	push   $0x0
   11f4e:	68 9e 00 00 00       	push   $0x9e
   11f53:	68 3a 79 01 00       	push   $0x1793a
   11f58:	68 dc 7b 01 00       	push   $0x17bdc
   11f5d:	68 43 79 01 00       	push   $0x17943
   11f62:	68 e0 ce 01 00       	push   $0x1cee0
   11f67:	e8 d2 05 00 00       	call   1253e <__sprint>
   11f6c:	83 c4 20             	add    $0x20,%esp
   11f6f:	83 ec 08             	sub    $0x8,%esp
   11f72:	68 5d 79 01 00       	push   $0x1795d
   11f77:	68 e0 ce 01 00       	push   $0x1cee0
   11f7c:	e8 d4 09 00 00       	call   12955 <_kpanic>
   11f81:	83 c4 10             	add    $0x10,%esp
   11f84:	83 ec 0c             	sub    $0xc,%esp
   11f87:	ff 75 f4             	pushl  -0xc(%ebp)
   11f8a:	e8 ec 20 00 00       	call   1407b <_schedule>
   11f8f:	83 c4 10             	add    $0x10,%esp
   11f92:	8b 45 f4             	mov    -0xc(%ebp),%eax
   11f95:	a3 40 d2 01 00       	mov    %eax,0x1d240
   11f9a:	c7 05 24 d2 01 00 01 	movl   $0x1,0x1d224
   11fa1:	00 00 00 
   11fa4:	83 ec 0c             	sub    $0xc,%esp
   11fa7:	6a 02                	push   $0x2
   11fa9:	e8 a5 27 00 00       	call   14753 <_sio_enable>
   11fae:	83 c4 10             	add    $0x10,%esp
   11fb1:	e8 dc 21 00 00       	call   14192 <_dispatch>
   11fb6:	83 ec 0c             	sub    $0xc,%esp
   11fb9:	68 68 79 01 00       	push   $0x17968
   11fbe:	e8 d6 ef ff ff       	call   10f99 <__cio_puts>
   11fc3:	83 c4 10             	add    $0x10,%esp
   11fc6:	83 ec 0c             	sub    $0xc,%esp
   11fc9:	68 ec 78 01 00       	push   $0x178ec
   11fce:	e8 c6 ef ff ff       	call   10f99 <__cio_puts>
   11fd3:	83 c4 10             	add    $0x10,%esp
   11fd6:	90                   	nop
   11fd7:	c9                   	leave  
   11fd8:	c3                   	ret    

00011fd9 <_shell>:
   11fd9:	f3 0f 1e fb          	endbr32 
   11fdd:	55                   	push   %ebp
   11fde:	89 e5                	mov    %esp,%ebp
   11fe0:	83 ec 18             	sub    $0x18,%esp
   11fe3:	e8 b9 f7 ff ff       	call   117a1 <__cio_getchar>
   11fe8:	83 ec 0c             	sub    $0xc,%esp
   11feb:	68 8c 79 01 00       	push   $0x1798c
   11ff0:	e8 a4 ef ff ff       	call   10f99 <__cio_puts>
   11ff5:	83 c4 10             	add    $0x10,%esp
   11ff8:	83 7d 08 78          	cmpl   $0x78,0x8(%ebp)
   11ffc:	0f 84 6e 02 00 00    	je     12270 <_shell+0x297>
   12002:	83 7d 08 04          	cmpl   $0x4,0x8(%ebp)
   12006:	0f 84 64 02 00 00    	je     12270 <_shell+0x297>
   1200c:	83 7d 08 73          	cmpl   $0x73,0x8(%ebp)
   12010:	0f 8f a7 01 00 00    	jg     121bd <_shell+0x1e4>
   12016:	83 7d 08 61          	cmpl   $0x61,0x8(%ebp)
   1201a:	7d 19                	jge    12035 <_shell+0x5c>
   1201c:	83 7d 08 0a          	cmpl   $0xa,0x8(%ebp)
   12020:	0f 84 2c 02 00 00    	je     12252 <_shell+0x279>
   12026:	83 7d 08 0d          	cmpl   $0xd,0x8(%ebp)
   1202a:	0f 84 22 02 00 00    	je     12252 <_shell+0x279>
   12030:	e9 88 01 00 00       	jmp    121bd <_shell+0x1e4>
   12035:	8b 45 08             	mov    0x8(%ebp),%eax
   12038:	83 e8 61             	sub    $0x61,%eax
   1203b:	83 f8 12             	cmp    $0x12,%eax
   1203e:	0f 87 79 01 00 00    	ja     121bd <_shell+0x1e4>
   12044:	8b 04 85 90 7b 01 00 	mov    0x17b90(,%eax,4),%eax
   1204b:	3e ff e0             	notrack jmp *%eax
   1204e:	a1 c0 ce 01 00       	mov    0x1cec0,%eax
   12053:	83 ec 08             	sub    $0x8,%esp
   12056:	50                   	push   %eax
   12057:	68 ad 79 01 00       	push   $0x179ad
   1205c:	e8 65 1e 00 00       	call   13ec6 <_que_dump>
   12061:	83 c4 10             	add    $0x10,%esp
   12064:	a1 b8 d2 01 00       	mov    0x1d2b8,%eax
   12069:	83 ec 08             	sub    $0x8,%esp
   1206c:	50                   	push   %eax
   1206d:	68 b9 79 01 00       	push   $0x179b9
   12072:	e8 4f 1e 00 00       	call   13ec6 <_que_dump>
   12077:	83 c4 10             	add    $0x10,%esp
   1207a:	a1 a4 d2 01 00       	mov    0x1d2a4,%eax
   1207f:	83 ec 08             	sub    $0x8,%esp
   12082:	50                   	push   %eax
   12083:	68 c7 79 01 00       	push   $0x179c7
   12088:	e8 39 1e 00 00       	call   13ec6 <_que_dump>
   1208d:	83 c4 10             	add    $0x10,%esp
   12090:	a1 a8 d2 01 00       	mov    0x1d2a8,%eax
   12095:	83 ec 08             	sub    $0x8,%esp
   12098:	50                   	push   %eax
   12099:	68 d5 79 01 00       	push   $0x179d5
   1209e:	e8 23 1e 00 00       	call   13ec6 <_que_dump>
   120a3:	83 c4 10             	add    $0x10,%esp
   120a6:	a1 ac d2 01 00       	mov    0x1d2ac,%eax
   120ab:	83 ec 08             	sub    $0x8,%esp
   120ae:	50                   	push   %eax
   120af:	68 e3 79 01 00       	push   $0x179e3
   120b4:	e8 0d 1e 00 00       	call   13ec6 <_que_dump>
   120b9:	83 c4 10             	add    $0x10,%esp
   120bc:	a1 b0 d2 01 00       	mov    0x1d2b0,%eax
   120c1:	83 ec 08             	sub    $0x8,%esp
   120c4:	50                   	push   %eax
   120c5:	68 f1 79 01 00       	push   $0x179f1
   120ca:	e8 f7 1d 00 00       	call   13ec6 <_que_dump>
   120cf:	83 c4 10             	add    $0x10,%esp
   120d2:	e9 7c 01 00 00       	jmp    12253 <_shell+0x27a>
   120d7:	83 ec 08             	sub    $0x8,%esp
   120da:	6a 00                	push   $0x0
   120dc:	68 ff 79 01 00       	push   $0x179ff
   120e1:	e8 a8 16 00 00       	call   1378e <_active_dump>
   120e6:	83 c4 10             	add    $0x10,%esp
   120e9:	e9 65 01 00 00       	jmp    12253 <_shell+0x27a>
   120ee:	83 ec 08             	sub    $0x8,%esp
   120f1:	6a 01                	push   $0x1
   120f3:	68 ff 79 01 00       	push   $0x179ff
   120f8:	e8 91 16 00 00       	call   1378e <_active_dump>
   120fd:	83 c4 10             	add    $0x10,%esp
   12100:	e9 4e 01 00 00       	jmp    12253 <_shell+0x27a>
   12105:	83 ec 0c             	sub    $0xc,%esp
   12108:	68 11 7a 01 00       	push   $0x17a11
   1210d:	e8 d6 15 00 00       	call   136e8 <_context_dump_all>
   12112:	83 c4 10             	add    $0x10,%esp
   12115:	e9 39 01 00 00       	jmp    12253 <_shell+0x27a>
   1211a:	83 ec 0c             	sub    $0xc,%esp
   1211d:	68 20 7a 01 00       	push   $0x17a20
   12122:	e8 72 ee ff ff       	call   10f99 <__cio_puts>
   12127:	83 c4 10             	add    $0x10,%esp
   1212a:	c7 45 f4 00 00 00 00 	movl   $0x0,-0xc(%ebp)
   12131:	eb 7b                	jmp    121ae <_shell+0x1d5>
   12133:	8b 45 f4             	mov    -0xc(%ebp),%eax
   12136:	8b 04 85 40 d2 01 00 	mov    0x1d240(,%eax,4),%eax
   1213d:	0f b6 40 14          	movzbl 0x14(%eax),%eax
   12141:	84 c0                	test   %al,%al
   12143:	74 65                	je     121aa <_shell+0x1d1>
   12145:	8b 45 f4             	mov    -0xc(%ebp),%eax
   12148:	8b 04 85 40 d2 01 00 	mov    0x1d240(,%eax,4),%eax
   1214f:	89 45 f0             	mov    %eax,-0x10(%ebp)
   12152:	8b 45 f0             	mov    -0x10(%ebp),%eax
   12155:	0f b7 40 10          	movzwl 0x10(%eax),%eax
   12159:	98                   	cwtl   
   1215a:	83 ec 08             	sub    $0x8,%esp
   1215d:	50                   	push   %eax
   1215e:	68 43 7a 01 00       	push   $0x17a43
   12163:	e8 8e f4 ff ff       	call   115f6 <__cio_printf>
   12168:	83 c4 10             	add    $0x10,%esp
   1216b:	8b 45 f0             	mov    -0x10(%ebp),%eax
   1216e:	8b 00                	mov    (%eax),%eax
   12170:	8b 40 3c             	mov    0x3c(%eax),%eax
   12173:	83 ec 08             	sub    $0x8,%esp
   12176:	50                   	push   %eax
   12177:	68 4d 7a 01 00       	push   $0x17a4d
   1217c:	e8 75 f4 ff ff       	call   115f6 <__cio_printf>
   12181:	83 c4 10             	add    $0x10,%esp
   12184:	8b 45 f0             	mov    -0x10(%ebp),%eax
   12187:	8b 40 04             	mov    0x4(%eax),%eax
   1218a:	83 ec 04             	sub    $0x4,%esp
   1218d:	6a 0c                	push   $0xc
   1218f:	50                   	push   %eax
   12190:	6a 00                	push   $0x0
   12192:	e8 ae 2b 00 00       	call   14d45 <_stk_dump>
   12197:	83 c4 10             	add    $0x10,%esp
   1219a:	83 ec 0c             	sub    $0xc,%esp
   1219d:	68 c8 00 00 00       	push   $0xc8
   121a2:	e8 39 fa ff ff       	call   11be0 <__delay>
   121a7:	83 c4 10             	add    $0x10,%esp
   121aa:	83 45 f4 01          	addl   $0x1,-0xc(%ebp)
   121ae:	83 7d f4 18          	cmpl   $0x18,-0xc(%ebp)
   121b2:	0f 8e 7b ff ff ff    	jle    12133 <_shell+0x15a>
   121b8:	e9 96 00 00 00       	jmp    12253 <_shell+0x27a>
   121bd:	83 ec 08             	sub    $0x8,%esp
   121c0:	ff 75 08             	pushl  0x8(%ebp)
   121c3:	68 58 7a 01 00       	push   $0x17a58
   121c8:	e8 29 f4 ff ff       	call   115f6 <__cio_printf>
   121cd:	83 c4 10             	add    $0x10,%esp
   121d0:	83 ec 0c             	sub    $0xc,%esp
   121d3:	68 79 7a 01 00       	push   $0x17a79
   121d8:	e8 bc ed ff ff       	call   10f99 <__cio_puts>
   121dd:	83 c4 10             	add    $0x10,%esp
   121e0:	83 ec 0c             	sub    $0xc,%esp
   121e3:	68 88 7a 01 00       	push   $0x17a88
   121e8:	e8 ac ed ff ff       	call   10f99 <__cio_puts>
   121ed:	83 c4 10             	add    $0x10,%esp
   121f0:	83 ec 0c             	sub    $0xc,%esp
   121f3:	68 a8 7a 01 00       	push   $0x17aa8
   121f8:	e8 9c ed ff ff       	call   10f99 <__cio_puts>
   121fd:	83 c4 10             	add    $0x10,%esp
   12200:	83 ec 0c             	sub    $0xc,%esp
   12203:	68 d5 7a 01 00       	push   $0x17ad5
   12208:	e8 8c ed ff ff       	call   10f99 <__cio_puts>
   1220d:	83 c4 10             	add    $0x10,%esp
   12210:	83 ec 0c             	sub    $0xc,%esp
   12213:	68 ec 7a 01 00       	push   $0x17aec
   12218:	e8 7c ed ff ff       	call   10f99 <__cio_puts>
   1221d:	83 c4 10             	add    $0x10,%esp
   12220:	83 ec 0c             	sub    $0xc,%esp
   12223:	68 19 7b 01 00       	push   $0x17b19
   12228:	e8 6c ed ff ff       	call   10f99 <__cio_puts>
   1222d:	83 c4 10             	add    $0x10,%esp
   12230:	83 ec 0c             	sub    $0xc,%esp
   12233:	68 34 7b 01 00       	push   $0x17b34
   12238:	e8 5c ed ff ff       	call   10f99 <__cio_puts>
   1223d:	83 c4 10             	add    $0x10,%esp
   12240:	83 ec 0c             	sub    $0xc,%esp
   12243:	68 5f 7b 01 00       	push   $0x17b5f
   12248:	e8 4c ed ff ff       	call   10f99 <__cio_puts>
   1224d:	83 c4 10             	add    $0x10,%esp
   12250:	eb 01                	jmp    12253 <_shell+0x27a>
   12252:	90                   	nop
   12253:	83 ec 0c             	sub    $0xc,%esp
   12256:	68 6e 7b 01 00       	push   $0x17b6e
   1225b:	e8 39 ed ff ff       	call   10f99 <__cio_puts>
   12260:	83 c4 10             	add    $0x10,%esp
   12263:	e8 39 f5 ff ff       	call   117a1 <__cio_getchar>
   12268:	89 45 08             	mov    %eax,0x8(%ebp)
   1226b:	e9 88 fd ff ff       	jmp    11ff8 <_shell+0x1f>
   12270:	83 ec 0c             	sub    $0xc,%esp
   12273:	68 72 7b 01 00       	push   $0x17b72
   12278:	e8 1c ed ff ff       	call   10f99 <__cio_puts>
   1227d:	83 c4 10             	add    $0x10,%esp
   12280:	e8 1c f5 ff ff       	call   117a1 <__cio_getchar>
   12285:	90                   	nop
   12286:	c9                   	leave  
   12287:	c3                   	ret    

00012288 <__insl>:
   12288:	f3 0f 1e fb          	endbr32 
   1228c:	55                   	push   %ebp
   1228d:	89 e5                	mov    %esp,%ebp
   1228f:	83 ec 18             	sub    $0x18,%esp
   12292:	c7 45 f4 00 00 00 00 	movl   $0x0,-0xc(%ebp)
   12299:	eb 24                	jmp    122bf <__insl+0x37>
   1229b:	8b 45 08             	mov    0x8(%ebp),%eax
   1229e:	83 ec 0c             	sub    $0xc,%esp
   122a1:	50                   	push   %eax
   122a2:	e8 ab 4a 00 00       	call   16d52 <__inl>
   122a7:	83 c4 10             	add    $0x10,%esp
   122aa:	8b 55 f4             	mov    -0xc(%ebp),%edx
   122ad:	8d 0c 95 00 00 00 00 	lea    0x0(,%edx,4),%ecx
   122b4:	8b 55 0c             	mov    0xc(%ebp),%edx
   122b7:	01 ca                	add    %ecx,%edx
   122b9:	89 02                	mov    %eax,(%edx)
   122bb:	83 45 f4 01          	addl   $0x1,-0xc(%ebp)
   122bf:	8b 45 f4             	mov    -0xc(%ebp),%eax
   122c2:	3b 45 10             	cmp    0x10(%ebp),%eax
   122c5:	7c d4                	jl     1229b <__insl+0x13>
   122c7:	90                   	nop
   122c8:	90                   	nop
   122c9:	c9                   	leave  
   122ca:	c3                   	ret    

000122cb <__put_char_or_code>:
   122cb:	f3 0f 1e fb          	endbr32 
   122cf:	55                   	push   %ebp
   122d0:	89 e5                	mov    %esp,%ebp
   122d2:	83 ec 08             	sub    $0x8,%esp
   122d5:	83 7d 08 1f          	cmpl   $0x1f,0x8(%ebp)
   122d9:	7e 17                	jle    122f2 <__put_char_or_code+0x27>
   122db:	83 7d 08 7e          	cmpl   $0x7e,0x8(%ebp)
   122df:	7f 11                	jg     122f2 <__put_char_or_code+0x27>
   122e1:	8b 45 08             	mov    0x8(%ebp),%eax
   122e4:	83 ec 0c             	sub    $0xc,%esp
   122e7:	50                   	push   %eax
   122e8:	e8 64 eb ff ff       	call   10e51 <__cio_putchar>
   122ed:	83 c4 10             	add    $0x10,%esp
   122f0:	eb 14                	jmp    12306 <__put_char_or_code+0x3b>
   122f2:	83 ec 08             	sub    $0x8,%esp
   122f5:	ff 75 08             	pushl  0x8(%ebp)
   122f8:	68 e4 7b 01 00       	push   $0x17be4
   122fd:	e8 f4 f2 ff ff       	call   115f6 <__cio_printf>
   12302:	83 c4 10             	add    $0x10,%esp
   12305:	90                   	nop
   12306:	90                   	nop
   12307:	c9                   	leave  
   12308:	c3                   	ret    

00012309 <__bound>:
   12309:	f3 0f 1e fb          	endbr32 
   1230d:	55                   	push   %ebp
   1230e:	89 e5                	mov    %esp,%ebp
   12310:	8b 45 0c             	mov    0xc(%ebp),%eax
   12313:	3b 45 08             	cmp    0x8(%ebp),%eax
   12316:	73 06                	jae    1231e <__bound+0x15>
   12318:	8b 45 08             	mov    0x8(%ebp),%eax
   1231b:	89 45 0c             	mov    %eax,0xc(%ebp)
   1231e:	8b 45 0c             	mov    0xc(%ebp),%eax
   12321:	3b 45 10             	cmp    0x10(%ebp),%eax
   12324:	76 06                	jbe    1232c <__bound+0x23>
   12326:	8b 45 10             	mov    0x10(%ebp),%eax
   12329:	89 45 0c             	mov    %eax,0xc(%ebp)
   1232c:	8b 45 0c             	mov    0xc(%ebp),%eax
   1232f:	5d                   	pop    %ebp
   12330:	c3                   	ret    

00012331 <__memset>:
   12331:	f3 0f 1e fb          	endbr32 
   12335:	55                   	push   %ebp
   12336:	89 e5                	mov    %esp,%ebp
   12338:	53                   	push   %ebx
   12339:	8b 4d 0c             	mov    0xc(%ebp),%ecx
   1233c:	8b 5d 08             	mov    0x8(%ebp),%ebx
   1233f:	eb 0b                	jmp    1234c <__memset+0x1b>
   12341:	89 d8                	mov    %ebx,%eax
   12343:	8d 58 01             	lea    0x1(%eax),%ebx
   12346:	0f b6 55 10          	movzbl 0x10(%ebp),%edx
   1234a:	88 10                	mov    %dl,(%eax)
   1234c:	89 c8                	mov    %ecx,%eax
   1234e:	8d 48 ff             	lea    -0x1(%eax),%ecx
   12351:	85 c0                	test   %eax,%eax
   12353:	75 ec                	jne    12341 <__memset+0x10>
   12355:	90                   	nop
   12356:	90                   	nop
   12357:	5b                   	pop    %ebx
   12358:	5d                   	pop    %ebp
   12359:	c3                   	ret    

0001235a <__memclr>:
   1235a:	f3 0f 1e fb          	endbr32 
   1235e:	55                   	push   %ebp
   1235f:	89 e5                	mov    %esp,%ebp
   12361:	53                   	push   %ebx
   12362:	8b 55 0c             	mov    0xc(%ebp),%edx
   12365:	8b 5d 08             	mov    0x8(%ebp),%ebx
   12368:	eb 08                	jmp    12372 <__memclr+0x18>
   1236a:	89 d8                	mov    %ebx,%eax
   1236c:	8d 58 01             	lea    0x1(%eax),%ebx
   1236f:	c6 00 00             	movb   $0x0,(%eax)
   12372:	89 d0                	mov    %edx,%eax
   12374:	8d 50 ff             	lea    -0x1(%eax),%edx
   12377:	85 c0                	test   %eax,%eax
   12379:	75 ef                	jne    1236a <__memclr+0x10>
   1237b:	90                   	nop
   1237c:	90                   	nop
   1237d:	5b                   	pop    %ebx
   1237e:	5d                   	pop    %ebp
   1237f:	c3                   	ret    

00012380 <__memcpy>:
   12380:	f3 0f 1e fb          	endbr32 
   12384:	55                   	push   %ebp
   12385:	89 e5                	mov    %esp,%ebp
   12387:	56                   	push   %esi
   12388:	53                   	push   %ebx
   12389:	8b 4d 10             	mov    0x10(%ebp),%ecx
   1238c:	8b 5d 08             	mov    0x8(%ebp),%ebx
   1238f:	8b 75 0c             	mov    0xc(%ebp),%esi
   12392:	eb 0f                	jmp    123a3 <__memcpy+0x23>
   12394:	89 f2                	mov    %esi,%edx
   12396:	8d 72 01             	lea    0x1(%edx),%esi
   12399:	89 d8                	mov    %ebx,%eax
   1239b:	8d 58 01             	lea    0x1(%eax),%ebx
   1239e:	0f b6 12             	movzbl (%edx),%edx
   123a1:	88 10                	mov    %dl,(%eax)
   123a3:	89 c8                	mov    %ecx,%eax
   123a5:	8d 48 ff             	lea    -0x1(%eax),%ecx
   123a8:	85 c0                	test   %eax,%eax
   123aa:	75 e8                	jne    12394 <__memcpy+0x14>
   123ac:	90                   	nop
   123ad:	90                   	nop
   123ae:	5b                   	pop    %ebx
   123af:	5e                   	pop    %esi
   123b0:	5d                   	pop    %ebp
   123b1:	c3                   	ret    

000123b2 <__strlen>:
   123b2:	f3 0f 1e fb          	endbr32 
   123b6:	55                   	push   %ebp
   123b7:	89 e5                	mov    %esp,%ebp
   123b9:	53                   	push   %ebx
   123ba:	8b 55 08             	mov    0x8(%ebp),%edx
   123bd:	bb 00 00 00 00       	mov    $0x0,%ebx
   123c2:	eb 03                	jmp    123c7 <__strlen+0x15>
   123c4:	83 c3 01             	add    $0x1,%ebx
   123c7:	89 d0                	mov    %edx,%eax
   123c9:	8d 50 01             	lea    0x1(%eax),%edx
   123cc:	0f b6 00             	movzbl (%eax),%eax
   123cf:	84 c0                	test   %al,%al
   123d1:	75 f1                	jne    123c4 <__strlen+0x12>
   123d3:	89 d8                	mov    %ebx,%eax
   123d5:	5b                   	pop    %ebx
   123d6:	5d                   	pop    %ebp
   123d7:	c3                   	ret    

000123d8 <__strcmp>:
   123d8:	f3 0f 1e fb          	endbr32 
   123dc:	55                   	push   %ebp
   123dd:	89 e5                	mov    %esp,%ebp
   123df:	53                   	push   %ebx
   123e0:	8b 45 08             	mov    0x8(%ebp),%eax
   123e3:	8b 55 0c             	mov    0xc(%ebp),%edx
   123e6:	eb 06                	jmp    123ee <__strcmp+0x16>
   123e8:	83 c0 01             	add    $0x1,%eax
   123eb:	83 c2 01             	add    $0x1,%edx
   123ee:	0f b6 08             	movzbl (%eax),%ecx
   123f1:	84 c9                	test   %cl,%cl
   123f3:	74 0a                	je     123ff <__strcmp+0x27>
   123f5:	0f b6 18             	movzbl (%eax),%ebx
   123f8:	0f b6 0a             	movzbl (%edx),%ecx
   123fb:	38 cb                	cmp    %cl,%bl
   123fd:	74 e9                	je     123e8 <__strcmp+0x10>
   123ff:	0f b6 00             	movzbl (%eax),%eax
   12402:	0f be c8             	movsbl %al,%ecx
   12405:	0f b6 02             	movzbl (%edx),%eax
   12408:	0f be c0             	movsbl %al,%eax
   1240b:	29 c1                	sub    %eax,%ecx
   1240d:	89 c8                	mov    %ecx,%eax
   1240f:	5b                   	pop    %ebx
   12410:	5d                   	pop    %ebp
   12411:	c3                   	ret    

00012412 <__strcpy>:
   12412:	f3 0f 1e fb          	endbr32 
   12416:	55                   	push   %ebp
   12417:	89 e5                	mov    %esp,%ebp
   12419:	53                   	push   %ebx
   1241a:	83 ec 10             	sub    $0x10,%esp
   1241d:	8b 55 08             	mov    0x8(%ebp),%edx
   12420:	8b 5d 0c             	mov    0xc(%ebp),%ebx
   12423:	89 55 f8             	mov    %edx,-0x8(%ebp)
   12426:	90                   	nop
   12427:	89 d9                	mov    %ebx,%ecx
   12429:	8d 59 01             	lea    0x1(%ecx),%ebx
   1242c:	89 d0                	mov    %edx,%eax
   1242e:	8d 50 01             	lea    0x1(%eax),%edx
   12431:	0f b6 09             	movzbl (%ecx),%ecx
   12434:	88 08                	mov    %cl,(%eax)
   12436:	0f b6 00             	movzbl (%eax),%eax
   12439:	84 c0                	test   %al,%al
   1243b:	75 ea                	jne    12427 <__strcpy+0x15>
   1243d:	8b 45 f8             	mov    -0x8(%ebp),%eax
   12440:	83 c4 10             	add    $0x10,%esp
   12443:	5b                   	pop    %ebx
   12444:	5d                   	pop    %ebp
   12445:	c3                   	ret    

00012446 <__strcat>:
   12446:	f3 0f 1e fb          	endbr32 
   1244a:	55                   	push   %ebp
   1244b:	89 e5                	mov    %esp,%ebp
   1244d:	56                   	push   %esi
   1244e:	53                   	push   %ebx
   1244f:	8b 45 08             	mov    0x8(%ebp),%eax
   12452:	8b 75 0c             	mov    0xc(%ebp),%esi
   12455:	89 c3                	mov    %eax,%ebx
   12457:	eb 03                	jmp    1245c <__strcat+0x16>
   12459:	83 c0 01             	add    $0x1,%eax
   1245c:	0f b6 10             	movzbl (%eax),%edx
   1245f:	84 d2                	test   %dl,%dl
   12461:	75 f6                	jne    12459 <__strcat+0x13>
   12463:	90                   	nop
   12464:	89 f1                	mov    %esi,%ecx
   12466:	8d 71 01             	lea    0x1(%ecx),%esi
   12469:	89 c2                	mov    %eax,%edx
   1246b:	8d 42 01             	lea    0x1(%edx),%eax
   1246e:	0f b6 09             	movzbl (%ecx),%ecx
   12471:	88 0a                	mov    %cl,(%edx)
   12473:	0f b6 12             	movzbl (%edx),%edx
   12476:	84 d2                	test   %dl,%dl
   12478:	75 ea                	jne    12464 <__strcat+0x1e>
   1247a:	89 d8                	mov    %ebx,%eax
   1247c:	5b                   	pop    %ebx
   1247d:	5e                   	pop    %esi
   1247e:	5d                   	pop    %ebp
   1247f:	c3                   	ret    

00012480 <__pad>:
   12480:	f3 0f 1e fb          	endbr32 
   12484:	55                   	push   %ebp
   12485:	89 e5                	mov    %esp,%ebp
   12487:	eb 12                	jmp    1249b <__pad+0x1b>
   12489:	8b 45 08             	mov    0x8(%ebp),%eax
   1248c:	8d 50 01             	lea    0x1(%eax),%edx
   1248f:	89 55 08             	mov    %edx,0x8(%ebp)
   12492:	8b 55 10             	mov    0x10(%ebp),%edx
   12495:	88 10                	mov    %dl,(%eax)
   12497:	83 6d 0c 01          	subl   $0x1,0xc(%ebp)
   1249b:	83 7d 0c 00          	cmpl   $0x0,0xc(%ebp)
   1249f:	7f e8                	jg     12489 <__pad+0x9>
   124a1:	8b 45 08             	mov    0x8(%ebp),%eax
   124a4:	5d                   	pop    %ebp
   124a5:	c3                   	ret    

000124a6 <__padstr>:
   124a6:	f3 0f 1e fb          	endbr32 
   124aa:	55                   	push   %ebp
   124ab:	89 e5                	mov    %esp,%ebp
   124ad:	83 ec 10             	sub    $0x10,%esp
   124b0:	83 7d 10 00          	cmpl   $0x0,0x10(%ebp)
   124b4:	79 0e                	jns    124c4 <__padstr+0x1e>
   124b6:	ff 75 0c             	pushl  0xc(%ebp)
   124b9:	e8 f4 fe ff ff       	call   123b2 <__strlen>
   124be:	83 c4 04             	add    $0x4,%esp
   124c1:	89 45 10             	mov    %eax,0x10(%ebp)
   124c4:	8b 45 14             	mov    0x14(%ebp),%eax
   124c7:	2b 45 10             	sub    0x10(%ebp),%eax
   124ca:	89 45 f8             	mov    %eax,-0x8(%ebp)
   124cd:	83 7d f8 00          	cmpl   $0x0,-0x8(%ebp)
   124d1:	7e 1a                	jle    124ed <__padstr+0x47>
   124d3:	83 7d 18 00          	cmpl   $0x0,0x18(%ebp)
   124d7:	75 14                	jne    124ed <__padstr+0x47>
   124d9:	ff 75 1c             	pushl  0x1c(%ebp)
   124dc:	ff 75 f8             	pushl  -0x8(%ebp)
   124df:	ff 75 08             	pushl  0x8(%ebp)
   124e2:	e8 99 ff ff ff       	call   12480 <__pad>
   124e7:	83 c4 0c             	add    $0xc,%esp
   124ea:	89 45 08             	mov    %eax,0x8(%ebp)
   124ed:	c7 45 fc 00 00 00 00 	movl   $0x0,-0x4(%ebp)
   124f4:	eb 1b                	jmp    12511 <__padstr+0x6b>
   124f6:	8b 55 fc             	mov    -0x4(%ebp),%edx
   124f9:	8b 45 0c             	mov    0xc(%ebp),%eax
   124fc:	8d 0c 02             	lea    (%edx,%eax,1),%ecx
   124ff:	8b 45 08             	mov    0x8(%ebp),%eax
   12502:	8d 50 01             	lea    0x1(%eax),%edx
   12505:	89 55 08             	mov    %edx,0x8(%ebp)
   12508:	0f b6 11             	movzbl (%ecx),%edx
   1250b:	88 10                	mov    %dl,(%eax)
   1250d:	83 45 fc 01          	addl   $0x1,-0x4(%ebp)
   12511:	8b 45 fc             	mov    -0x4(%ebp),%eax
   12514:	3b 45 10             	cmp    0x10(%ebp),%eax
   12517:	7c dd                	jl     124f6 <__padstr+0x50>
   12519:	83 7d f8 00          	cmpl   $0x0,-0x8(%ebp)
   1251d:	7e 1a                	jle    12539 <__padstr+0x93>
   1251f:	83 7d 18 00          	cmpl   $0x0,0x18(%ebp)
   12523:	74 14                	je     12539 <__padstr+0x93>
   12525:	ff 75 1c             	pushl  0x1c(%ebp)
   12528:	ff 75 f8             	pushl  -0x8(%ebp)
   1252b:	ff 75 08             	pushl  0x8(%ebp)
   1252e:	e8 4d ff ff ff       	call   12480 <__pad>
   12533:	83 c4 0c             	add    $0xc,%esp
   12536:	89 45 08             	mov    %eax,0x8(%ebp)
   12539:	8b 45 08             	mov    0x8(%ebp),%eax
   1253c:	c9                   	leave  
   1253d:	c3                   	ret    

0001253e <__sprint>:
   1253e:	f3 0f 1e fb          	endbr32 
   12542:	55                   	push   %ebp
   12543:	89 e5                	mov    %esp,%ebp
   12545:	83 ec 38             	sub    $0x38,%esp
   12548:	8d 45 0c             	lea    0xc(%ebp),%eax
   1254b:	83 c0 04             	add    $0x4,%eax
   1254e:	89 45 f4             	mov    %eax,-0xc(%ebp)
   12551:	e9 fc 01 00 00       	jmp    12752 <__sprint+0x214>
   12556:	80 7d f3 25          	cmpb   $0x25,-0xd(%ebp)
   1255a:	0f 85 e3 01 00 00    	jne    12743 <__sprint+0x205>
   12560:	c7 45 ec 00 00 00 00 	movl   $0x0,-0x14(%ebp)
   12567:	c7 45 e4 20 00 00 00 	movl   $0x20,-0x1c(%ebp)
   1256e:	c7 45 e8 00 00 00 00 	movl   $0x0,-0x18(%ebp)
   12575:	8b 45 0c             	mov    0xc(%ebp),%eax
   12578:	8d 50 01             	lea    0x1(%eax),%edx
   1257b:	89 55 0c             	mov    %edx,0xc(%ebp)
   1257e:	0f b6 00             	movzbl (%eax),%eax
   12581:	88 45 f3             	mov    %al,-0xd(%ebp)
   12584:	80 7d f3 2d          	cmpb   $0x2d,-0xd(%ebp)
   12588:	75 16                	jne    125a0 <__sprint+0x62>
   1258a:	c7 45 ec 01 00 00 00 	movl   $0x1,-0x14(%ebp)
   12591:	8b 45 0c             	mov    0xc(%ebp),%eax
   12594:	8d 50 01             	lea    0x1(%eax),%edx
   12597:	89 55 0c             	mov    %edx,0xc(%ebp)
   1259a:	0f b6 00             	movzbl (%eax),%eax
   1259d:	88 45 f3             	mov    %al,-0xd(%ebp)
   125a0:	80 7d f3 30          	cmpb   $0x30,-0xd(%ebp)
   125a4:	75 40                	jne    125e6 <__sprint+0xa8>
   125a6:	c7 45 e4 30 00 00 00 	movl   $0x30,-0x1c(%ebp)
   125ad:	8b 45 0c             	mov    0xc(%ebp),%eax
   125b0:	8d 50 01             	lea    0x1(%eax),%edx
   125b3:	89 55 0c             	mov    %edx,0xc(%ebp)
   125b6:	0f b6 00             	movzbl (%eax),%eax
   125b9:	88 45 f3             	mov    %al,-0xd(%ebp)
   125bc:	eb 28                	jmp    125e6 <__sprint+0xa8>
   125be:	8b 55 e8             	mov    -0x18(%ebp),%edx
   125c1:	89 d0                	mov    %edx,%eax
   125c3:	c1 e0 02             	shl    $0x2,%eax
   125c6:	01 d0                	add    %edx,%eax
   125c8:	01 c0                	add    %eax,%eax
   125ca:	89 45 e8             	mov    %eax,-0x18(%ebp)
   125cd:	0f be 45 f3          	movsbl -0xd(%ebp),%eax
   125d1:	83 e8 30             	sub    $0x30,%eax
   125d4:	01 45 e8             	add    %eax,-0x18(%ebp)
   125d7:	8b 45 0c             	mov    0xc(%ebp),%eax
   125da:	8d 50 01             	lea    0x1(%eax),%edx
   125dd:	89 55 0c             	mov    %edx,0xc(%ebp)
   125e0:	0f b6 00             	movzbl (%eax),%eax
   125e3:	88 45 f3             	mov    %al,-0xd(%ebp)
   125e6:	80 7d f3 2f          	cmpb   $0x2f,-0xd(%ebp)
   125ea:	7e 06                	jle    125f2 <__sprint+0xb4>
   125ec:	80 7d f3 39          	cmpb   $0x39,-0xd(%ebp)
   125f0:	7e cc                	jle    125be <__sprint+0x80>
   125f2:	0f be 45 f3          	movsbl -0xd(%ebp),%eax
   125f6:	83 e8 63             	sub    $0x63,%eax
   125f9:	83 f8 15             	cmp    $0x15,%eax
   125fc:	0f 87 50 01 00 00    	ja     12752 <__sprint+0x214>
   12602:	8b 04 85 ec 7b 01 00 	mov    0x17bec(,%eax,4),%eax
   12609:	3e ff e0             	notrack jmp *%eax
   1260c:	8b 45 f4             	mov    -0xc(%ebp),%eax
   1260f:	8d 50 04             	lea    0x4(%eax),%edx
   12612:	89 55 f4             	mov    %edx,-0xc(%ebp)
   12615:	8b 00                	mov    (%eax),%eax
   12617:	88 45 f3             	mov    %al,-0xd(%ebp)
   1261a:	0f b6 45 f3          	movzbl -0xd(%ebp),%eax
   1261e:	88 45 d0             	mov    %al,-0x30(%ebp)
   12621:	c6 45 d1 00          	movb   $0x0,-0x2f(%ebp)
   12625:	ff 75 e4             	pushl  -0x1c(%ebp)
   12628:	ff 75 ec             	pushl  -0x14(%ebp)
   1262b:	ff 75 e8             	pushl  -0x18(%ebp)
   1262e:	6a 01                	push   $0x1
   12630:	8d 45 d0             	lea    -0x30(%ebp),%eax
   12633:	50                   	push   %eax
   12634:	ff 75 08             	pushl  0x8(%ebp)
   12637:	e8 6a fe ff ff       	call   124a6 <__padstr>
   1263c:	83 c4 18             	add    $0x18,%esp
   1263f:	89 45 08             	mov    %eax,0x8(%ebp)
   12642:	e9 0b 01 00 00       	jmp    12752 <__sprint+0x214>
   12647:	8b 45 f4             	mov    -0xc(%ebp),%eax
   1264a:	8d 50 04             	lea    0x4(%eax),%edx
   1264d:	89 55 f4             	mov    %edx,-0xc(%ebp)
   12650:	8b 00                	mov    (%eax),%eax
   12652:	83 ec 08             	sub    $0x8,%esp
   12655:	50                   	push   %eax
   12656:	8d 45 d0             	lea    -0x30(%ebp),%eax
   12659:	50                   	push   %eax
   1265a:	e8 a2 01 00 00       	call   12801 <__cvtdec>
   1265f:	83 c4 10             	add    $0x10,%esp
   12662:	89 45 e0             	mov    %eax,-0x20(%ebp)
   12665:	83 ec 08             	sub    $0x8,%esp
   12668:	ff 75 e4             	pushl  -0x1c(%ebp)
   1266b:	ff 75 ec             	pushl  -0x14(%ebp)
   1266e:	ff 75 e8             	pushl  -0x18(%ebp)
   12671:	ff 75 e0             	pushl  -0x20(%ebp)
   12674:	8d 45 d0             	lea    -0x30(%ebp),%eax
   12677:	50                   	push   %eax
   12678:	ff 75 08             	pushl  0x8(%ebp)
   1267b:	e8 26 fe ff ff       	call   124a6 <__padstr>
   12680:	83 c4 20             	add    $0x20,%esp
   12683:	89 45 08             	mov    %eax,0x8(%ebp)
   12686:	e9 c7 00 00 00       	jmp    12752 <__sprint+0x214>
   1268b:	8b 45 f4             	mov    -0xc(%ebp),%eax
   1268e:	8d 50 04             	lea    0x4(%eax),%edx
   12691:	89 55 f4             	mov    %edx,-0xc(%ebp)
   12694:	8b 00                	mov    (%eax),%eax
   12696:	89 45 dc             	mov    %eax,-0x24(%ebp)
   12699:	83 ec 08             	sub    $0x8,%esp
   1269c:	ff 75 e4             	pushl  -0x1c(%ebp)
   1269f:	ff 75 ec             	pushl  -0x14(%ebp)
   126a2:	ff 75 e8             	pushl  -0x18(%ebp)
   126a5:	6a ff                	push   $0xffffffff
   126a7:	ff 75 dc             	pushl  -0x24(%ebp)
   126aa:	ff 75 08             	pushl  0x8(%ebp)
   126ad:	e8 f4 fd ff ff       	call   124a6 <__padstr>
   126b2:	83 c4 20             	add    $0x20,%esp
   126b5:	89 45 08             	mov    %eax,0x8(%ebp)
   126b8:	e9 95 00 00 00       	jmp    12752 <__sprint+0x214>
   126bd:	8b 45 f4             	mov    -0xc(%ebp),%eax
   126c0:	8d 50 04             	lea    0x4(%eax),%edx
   126c3:	89 55 f4             	mov    %edx,-0xc(%ebp)
   126c6:	8b 00                	mov    (%eax),%eax
   126c8:	83 ec 08             	sub    $0x8,%esp
   126cb:	50                   	push   %eax
   126cc:	8d 45 d0             	lea    -0x30(%ebp),%eax
   126cf:	50                   	push   %eax
   126d0:	e8 73 01 00 00       	call   12848 <__cvthex>
   126d5:	83 c4 10             	add    $0x10,%esp
   126d8:	83 c0 02             	add    $0x2,%eax
   126db:	89 45 e0             	mov    %eax,-0x20(%ebp)
   126de:	83 ec 08             	sub    $0x8,%esp
   126e1:	ff 75 e4             	pushl  -0x1c(%ebp)
   126e4:	ff 75 ec             	pushl  -0x14(%ebp)
   126e7:	ff 75 e8             	pushl  -0x18(%ebp)
   126ea:	ff 75 e0             	pushl  -0x20(%ebp)
   126ed:	8d 45 d0             	lea    -0x30(%ebp),%eax
   126f0:	50                   	push   %eax
   126f1:	ff 75 08             	pushl  0x8(%ebp)
   126f4:	e8 ad fd ff ff       	call   124a6 <__padstr>
   126f9:	83 c4 20             	add    $0x20,%esp
   126fc:	89 45 08             	mov    %eax,0x8(%ebp)
   126ff:	eb 51                	jmp    12752 <__sprint+0x214>
   12701:	8b 45 f4             	mov    -0xc(%ebp),%eax
   12704:	8d 50 04             	lea    0x4(%eax),%edx
   12707:	89 55 f4             	mov    %edx,-0xc(%ebp)
   1270a:	8b 00                	mov    (%eax),%eax
   1270c:	83 ec 08             	sub    $0x8,%esp
   1270f:	50                   	push   %eax
   12710:	8d 45 d0             	lea    -0x30(%ebp),%eax
   12713:	50                   	push   %eax
   12714:	e8 ae 01 00 00       	call   128c7 <__cvtoct>
   12719:	83 c4 10             	add    $0x10,%esp
   1271c:	89 45 e0             	mov    %eax,-0x20(%ebp)
   1271f:	83 ec 08             	sub    $0x8,%esp
   12722:	ff 75 e4             	pushl  -0x1c(%ebp)
   12725:	ff 75 ec             	pushl  -0x14(%ebp)
   12728:	ff 75 e8             	pushl  -0x18(%ebp)
   1272b:	ff 75 e0             	pushl  -0x20(%ebp)
   1272e:	8d 45 d0             	lea    -0x30(%ebp),%eax
   12731:	50                   	push   %eax
   12732:	ff 75 08             	pushl  0x8(%ebp)
   12735:	e8 6c fd ff ff       	call   124a6 <__padstr>
   1273a:	83 c4 20             	add    $0x20,%esp
   1273d:	89 45 08             	mov    %eax,0x8(%ebp)
   12740:	90                   	nop
   12741:	eb 0f                	jmp    12752 <__sprint+0x214>
   12743:	8b 45 08             	mov    0x8(%ebp),%eax
   12746:	8d 50 01             	lea    0x1(%eax),%edx
   12749:	89 55 08             	mov    %edx,0x8(%ebp)
   1274c:	0f b6 55 f3          	movzbl -0xd(%ebp),%edx
   12750:	88 10                	mov    %dl,(%eax)
   12752:	8b 45 0c             	mov    0xc(%ebp),%eax
   12755:	8d 50 01             	lea    0x1(%eax),%edx
   12758:	89 55 0c             	mov    %edx,0xc(%ebp)
   1275b:	0f b6 00             	movzbl (%eax),%eax
   1275e:	88 45 f3             	mov    %al,-0xd(%ebp)
   12761:	80 7d f3 00          	cmpb   $0x0,-0xd(%ebp)
   12765:	0f 85 eb fd ff ff    	jne    12556 <__sprint+0x18>
   1276b:	8b 45 08             	mov    0x8(%ebp),%eax
   1276e:	c6 00 00             	movb   $0x0,(%eax)
   12771:	90                   	nop
   12772:	c9                   	leave  
   12773:	c3                   	ret    

00012774 <__cvtdec0>:
   12774:	f3 0f 1e fb          	endbr32 
   12778:	55                   	push   %ebp
   12779:	89 e5                	mov    %esp,%ebp
   1277b:	83 ec 18             	sub    $0x18,%esp
   1277e:	8b 4d 0c             	mov    0xc(%ebp),%ecx
   12781:	ba 67 66 66 66       	mov    $0x66666667,%edx
   12786:	89 c8                	mov    %ecx,%eax
   12788:	f7 ea                	imul   %edx
   1278a:	c1 fa 02             	sar    $0x2,%edx
   1278d:	89 c8                	mov    %ecx,%eax
   1278f:	c1 f8 1f             	sar    $0x1f,%eax
   12792:	29 c2                	sub    %eax,%edx
   12794:	89 d0                	mov    %edx,%eax
   12796:	89 45 f4             	mov    %eax,-0xc(%ebp)
   12799:	83 7d f4 00          	cmpl   $0x0,-0xc(%ebp)
   1279d:	79 0e                	jns    127ad <__cvtdec0+0x39>
   1279f:	c7 45 f4 cc cc cc 0c 	movl   $0xccccccc,-0xc(%ebp)
   127a6:	c7 45 0c 08 00 00 00 	movl   $0x8,0xc(%ebp)
   127ad:	83 7d f4 00          	cmpl   $0x0,-0xc(%ebp)
   127b1:	74 14                	je     127c7 <__cvtdec0+0x53>
   127b3:	83 ec 08             	sub    $0x8,%esp
   127b6:	ff 75 f4             	pushl  -0xc(%ebp)
   127b9:	ff 75 08             	pushl  0x8(%ebp)
   127bc:	e8 b3 ff ff ff       	call   12774 <__cvtdec0>
   127c1:	83 c4 10             	add    $0x10,%esp
   127c4:	89 45 08             	mov    %eax,0x8(%ebp)
   127c7:	8b 4d 0c             	mov    0xc(%ebp),%ecx
   127ca:	ba 67 66 66 66       	mov    $0x66666667,%edx
   127cf:	89 c8                	mov    %ecx,%eax
   127d1:	f7 ea                	imul   %edx
   127d3:	c1 fa 02             	sar    $0x2,%edx
   127d6:	89 c8                	mov    %ecx,%eax
   127d8:	c1 f8 1f             	sar    $0x1f,%eax
   127db:	29 c2                	sub    %eax,%edx
   127dd:	89 d0                	mov    %edx,%eax
   127df:	c1 e0 02             	shl    $0x2,%eax
   127e2:	01 d0                	add    %edx,%eax
   127e4:	01 c0                	add    %eax,%eax
   127e6:	29 c1                	sub    %eax,%ecx
   127e8:	89 ca                	mov    %ecx,%edx
   127ea:	89 d0                	mov    %edx,%eax
   127ec:	8d 48 30             	lea    0x30(%eax),%ecx
   127ef:	8b 45 08             	mov    0x8(%ebp),%eax
   127f2:	8d 50 01             	lea    0x1(%eax),%edx
   127f5:	89 55 08             	mov    %edx,0x8(%ebp)
   127f8:	89 ca                	mov    %ecx,%edx
   127fa:	88 10                	mov    %dl,(%eax)
   127fc:	8b 45 08             	mov    0x8(%ebp),%eax
   127ff:	c9                   	leave  
   12800:	c3                   	ret    

00012801 <__cvtdec>:
   12801:	f3 0f 1e fb          	endbr32 
   12805:	55                   	push   %ebp
   12806:	89 e5                	mov    %esp,%ebp
   12808:	83 ec 18             	sub    $0x18,%esp
   1280b:	8b 45 08             	mov    0x8(%ebp),%eax
   1280e:	89 45 f4             	mov    %eax,-0xc(%ebp)
   12811:	83 7d 0c 00          	cmpl   $0x0,0xc(%ebp)
   12815:	79 0f                	jns    12826 <__cvtdec+0x25>
   12817:	8b 45 f4             	mov    -0xc(%ebp),%eax
   1281a:	8d 50 01             	lea    0x1(%eax),%edx
   1281d:	89 55 f4             	mov    %edx,-0xc(%ebp)
   12820:	c6 00 2d             	movb   $0x2d,(%eax)
   12823:	f7 5d 0c             	negl   0xc(%ebp)
   12826:	83 ec 08             	sub    $0x8,%esp
   12829:	ff 75 0c             	pushl  0xc(%ebp)
   1282c:	ff 75 f4             	pushl  -0xc(%ebp)
   1282f:	e8 40 ff ff ff       	call   12774 <__cvtdec0>
   12834:	83 c4 10             	add    $0x10,%esp
   12837:	89 45 f4             	mov    %eax,-0xc(%ebp)
   1283a:	8b 45 f4             	mov    -0xc(%ebp),%eax
   1283d:	c6 00 00             	movb   $0x0,(%eax)
   12840:	8b 45 f4             	mov    -0xc(%ebp),%eax
   12843:	2b 45 08             	sub    0x8(%ebp),%eax
   12846:	c9                   	leave  
   12847:	c3                   	ret    

00012848 <__cvthex>:
   12848:	f3 0f 1e fb          	endbr32 
   1284c:	55                   	push   %ebp
   1284d:	89 e5                	mov    %esp,%ebp
   1284f:	83 ec 10             	sub    $0x10,%esp
   12852:	c7 45 f8 00 00 00 00 	movl   $0x0,-0x8(%ebp)
   12859:	8b 45 08             	mov    0x8(%ebp),%eax
   1285c:	89 45 f4             	mov    %eax,-0xc(%ebp)
   1285f:	c7 45 fc 00 00 00 00 	movl   $0x0,-0x4(%ebp)
   12866:	eb 4b                	jmp    128b3 <__cvthex+0x6b>
   12868:	8b 45 0c             	mov    0xc(%ebp),%eax
   1286b:	25 00 00 00 f0       	and    $0xf0000000,%eax
   12870:	89 45 f0             	mov    %eax,-0x10(%ebp)
   12873:	83 7d fc 07          	cmpl   $0x7,-0x4(%ebp)
   12877:	74 0c                	je     12885 <__cvthex+0x3d>
   12879:	83 7d f0 00          	cmpl   $0x0,-0x10(%ebp)
   1287d:	75 06                	jne    12885 <__cvthex+0x3d>
   1287f:	83 7d f8 00          	cmpl   $0x0,-0x8(%ebp)
   12883:	74 26                	je     128ab <__cvthex+0x63>
   12885:	c7 45 f8 01 00 00 00 	movl   $0x1,-0x8(%ebp)
   1288c:	c1 7d f0 1c          	sarl   $0x1c,-0x10(%ebp)
   12890:	83 65 f0 0f          	andl   $0xf,-0x10(%ebp)
   12894:	8b 45 f4             	mov    -0xc(%ebp),%eax
   12897:	8d 50 01             	lea    0x1(%eax),%edx
   1289a:	89 55 f4             	mov    %edx,-0xc(%ebp)
   1289d:	8b 55 f0             	mov    -0x10(%ebp),%edx
   128a0:	81 c2 0c b5 01 00    	add    $0x1b50c,%edx
   128a6:	0f b6 12             	movzbl (%edx),%edx
   128a9:	88 10                	mov    %dl,(%eax)
   128ab:	c1 65 0c 04          	shll   $0x4,0xc(%ebp)
   128af:	83 45 fc 01          	addl   $0x1,-0x4(%ebp)
   128b3:	83 7d fc 07          	cmpl   $0x7,-0x4(%ebp)
   128b7:	7e af                	jle    12868 <__cvthex+0x20>
   128b9:	8b 45 f4             	mov    -0xc(%ebp),%eax
   128bc:	c6 00 00             	movb   $0x0,(%eax)
   128bf:	8b 45 f4             	mov    -0xc(%ebp),%eax
   128c2:	2b 45 08             	sub    0x8(%ebp),%eax
   128c5:	c9                   	leave  
   128c6:	c3                   	ret    

000128c7 <__cvtoct>:
   128c7:	f3 0f 1e fb          	endbr32 
   128cb:	55                   	push   %ebp
   128cc:	89 e5                	mov    %esp,%ebp
   128ce:	83 ec 10             	sub    $0x10,%esp
   128d1:	c7 45 f8 00 00 00 00 	movl   $0x0,-0x8(%ebp)
   128d8:	8b 45 08             	mov    0x8(%ebp),%eax
   128db:	89 45 f4             	mov    %eax,-0xc(%ebp)
   128de:	8b 45 0c             	mov    0xc(%ebp),%eax
   128e1:	25 00 00 00 c0       	and    $0xc0000000,%eax
   128e6:	89 45 f0             	mov    %eax,-0x10(%ebp)
   128e9:	c1 7d f0 1e          	sarl   $0x1e,-0x10(%ebp)
   128ed:	c7 45 fc 00 00 00 00 	movl   $0x0,-0x4(%ebp)
   128f4:	eb 4b                	jmp    12941 <__cvtoct+0x7a>
   128f6:	83 7d fc 0a          	cmpl   $0xa,-0x4(%ebp)
   128fa:	74 0c                	je     12908 <__cvtoct+0x41>
   128fc:	83 7d f0 00          	cmpl   $0x0,-0x10(%ebp)
   12900:	75 06                	jne    12908 <__cvtoct+0x41>
   12902:	83 7d f8 00          	cmpl   $0x0,-0x8(%ebp)
   12906:	74 22                	je     1292a <__cvtoct+0x63>
   12908:	c7 45 f8 01 00 00 00 	movl   $0x1,-0x8(%ebp)
   1290f:	83 65 f0 07          	andl   $0x7,-0x10(%ebp)
   12913:	8b 45 f4             	mov    -0xc(%ebp),%eax
   12916:	8d 50 01             	lea    0x1(%eax),%edx
   12919:	89 55 f4             	mov    %edx,-0xc(%ebp)
   1291c:	8b 55 f0             	mov    -0x10(%ebp),%edx
   1291f:	81 c2 0c b5 01 00    	add    $0x1b50c,%edx
   12925:	0f b6 12             	movzbl (%edx),%edx
   12928:	88 10                	mov    %dl,(%eax)
   1292a:	c1 65 0c 03          	shll   $0x3,0xc(%ebp)
   1292e:	8b 45 0c             	mov    0xc(%ebp),%eax
   12931:	25 00 00 00 e0       	and    $0xe0000000,%eax
   12936:	89 45 f0             	mov    %eax,-0x10(%ebp)
   12939:	c1 7d f0 1d          	sarl   $0x1d,-0x10(%ebp)
   1293d:	83 45 fc 01          	addl   $0x1,-0x4(%ebp)
   12941:	83 7d fc 0a          	cmpl   $0xa,-0x4(%ebp)
   12945:	7e af                	jle    128f6 <__cvtoct+0x2f>
   12947:	8b 45 f4             	mov    -0xc(%ebp),%eax
   1294a:	c6 00 00             	movb   $0x0,(%eax)
   1294d:	8b 45 f4             	mov    -0xc(%ebp),%eax
   12950:	2b 45 08             	sub    0x8(%ebp),%eax
   12953:	c9                   	leave  
   12954:	c3                   	ret    

00012955 <_kpanic>:
   12955:	f3 0f 1e fb          	endbr32 
   12959:	55                   	push   %ebp
   1295a:	89 e5                	mov    %esp,%ebp
   1295c:	83 ec 08             	sub    $0x8,%esp
   1295f:	83 ec 0c             	sub    $0xc,%esp
   12962:	68 44 7c 01 00       	push   $0x17c44
   12967:	e8 2d e6 ff ff       	call   10f99 <__cio_puts>
   1296c:	83 c4 10             	add    $0x10,%esp
   1296f:	83 7d 0c 00          	cmpl   $0x0,0xc(%ebp)
   12973:	74 05                	je     1297a <_kpanic+0x25>
   12975:	8b 45 0c             	mov    0xc(%ebp),%eax
   12978:	eb 05                	jmp    1297f <_kpanic+0x2a>
   1297a:	b8 61 7c 01 00       	mov    $0x17c61,%eax
   1297f:	83 ec 04             	sub    $0x4,%esp
   12982:	50                   	push   %eax
   12983:	ff 75 08             	pushl  0x8(%ebp)
   12986:	68 68 7c 01 00       	push   $0x17c68
   1298b:	e8 66 ec ff ff       	call   115f6 <__cio_printf>
   12990:	83 c4 10             	add    $0x10,%esp
   12993:	83 ec 0c             	sub    $0xc,%esp
   12996:	68 7c 7c 01 00       	push   $0x17c7c
   1299b:	e8 e0 f1 ff ff       	call   11b80 <__panic>
   129a0:	83 c4 10             	add    $0x10,%esp
   129a3:	90                   	nop
   129a4:	c9                   	leave  
   129a5:	c3                   	ret    

000129a6 <_add_block>:
   129a6:	f3 0f 1e fb          	endbr32 
   129aa:	55                   	push   %ebp
   129ab:	89 e5                	mov    %esp,%ebp
   129ad:	83 ec 18             	sub    $0x18,%esp
   129b0:	81 7d 0c ff 0f 00 00 	cmpl   $0xfff,0xc(%ebp)
   129b7:	0f 86 d9 00 00 00    	jbe    12a96 <_add_block+0xf0>
   129bd:	8b 45 0c             	mov    0xc(%ebp),%eax
   129c0:	25 ff 0f 00 00       	and    $0xfff,%eax
   129c5:	85 c0                	test   %eax,%eax
   129c7:	74 07                	je     129d0 <_add_block+0x2a>
   129c9:	81 65 0c 00 f0 ff ff 	andl   $0xfffff000,0xc(%ebp)
   129d0:	8b 45 08             	mov    0x8(%ebp),%eax
   129d3:	89 45 ec             	mov    %eax,-0x14(%ebp)
   129d6:	8b 45 0c             	mov    0xc(%ebp),%eax
   129d9:	c1 e8 0c             	shr    $0xc,%eax
   129dc:	89 c2                	mov    %eax,%edx
   129de:	8b 45 ec             	mov    -0x14(%ebp),%eax
   129e1:	89 10                	mov    %edx,(%eax)
   129e3:	8b 45 ec             	mov    -0x14(%ebp),%eax
   129e6:	c7 40 04 00 00 00 00 	movl   $0x0,0x4(%eax)
   129ed:	a1 14 b6 01 00       	mov    0x1b614,%eax
   129f2:	85 c0                	test   %eax,%eax
   129f4:	75 0d                	jne    12a03 <_add_block+0x5d>
   129f6:	8b 45 ec             	mov    -0x14(%ebp),%eax
   129f9:	a3 14 b6 01 00       	mov    %eax,0x1b614
   129fe:	e9 94 00 00 00       	jmp    12a97 <_add_block+0xf1>
   12a03:	c7 45 f4 00 00 00 00 	movl   $0x0,-0xc(%ebp)
   12a0a:	a1 14 b6 01 00       	mov    0x1b614,%eax
   12a0f:	89 45 f0             	mov    %eax,-0x10(%ebp)
   12a12:	eb 0f                	jmp    12a23 <_add_block+0x7d>
   12a14:	8b 45 f0             	mov    -0x10(%ebp),%eax
   12a17:	89 45 f4             	mov    %eax,-0xc(%ebp)
   12a1a:	8b 45 f0             	mov    -0x10(%ebp),%eax
   12a1d:	8b 40 04             	mov    0x4(%eax),%eax
   12a20:	89 45 f0             	mov    %eax,-0x10(%ebp)
   12a23:	83 7d f0 00          	cmpl   $0x0,-0x10(%ebp)
   12a27:	74 08                	je     12a31 <_add_block+0x8b>
   12a29:	8b 45 f0             	mov    -0x10(%ebp),%eax
   12a2c:	3b 45 ec             	cmp    -0x14(%ebp),%eax
   12a2f:	72 e3                	jb     12a14 <_add_block+0x6e>
   12a31:	8b 45 ec             	mov    -0x14(%ebp),%eax
   12a34:	8b 55 f0             	mov    -0x10(%ebp),%edx
   12a37:	89 50 04             	mov    %edx,0x4(%eax)
   12a3a:	83 7d f4 00          	cmpl   $0x0,-0xc(%ebp)
   12a3e:	75 4b                	jne    12a8b <_add_block+0xe5>
   12a40:	83 7d f0 00          	cmpl   $0x0,-0x10(%ebp)
   12a44:	75 3b                	jne    12a81 <_add_block+0xdb>
   12a46:	83 ec 08             	sub    $0x8,%esp
   12a49:	6a 00                	push   $0x0
   12a4b:	68 f5 00 00 00       	push   $0xf5
   12a50:	68 8c 7c 01 00       	push   $0x17c8c
   12a55:	68 2c 7d 01 00       	push   $0x17d2c
   12a5a:	68 93 7c 01 00       	push   $0x17c93
   12a5f:	68 e0 ce 01 00       	push   $0x1cee0
   12a64:	e8 d5 fa ff ff       	call   1253e <__sprint>
   12a69:	83 c4 20             	add    $0x20,%esp
   12a6c:	83 ec 08             	sub    $0x8,%esp
   12a6f:	68 ad 7c 01 00       	push   $0x17cad
   12a74:	68 e0 ce 01 00       	push   $0x1cee0
   12a79:	e8 d7 fe ff ff       	call   12955 <_kpanic>
   12a7e:	83 c4 10             	add    $0x10,%esp
   12a81:	8b 45 ec             	mov    -0x14(%ebp),%eax
   12a84:	a3 14 b6 01 00       	mov    %eax,0x1b614
   12a89:	eb 0c                	jmp    12a97 <_add_block+0xf1>
   12a8b:	8b 45 f4             	mov    -0xc(%ebp),%eax
   12a8e:	8b 55 ec             	mov    -0x14(%ebp),%edx
   12a91:	89 50 04             	mov    %edx,0x4(%eax)
   12a94:	eb 01                	jmp    12a97 <_add_block+0xf1>
   12a96:	90                   	nop
   12a97:	c9                   	leave  
   12a98:	c3                   	ret    

00012a99 <_km_init>:
   12a99:	f3 0f 1e fb          	endbr32 
   12a9d:	55                   	push   %ebp
   12a9e:	89 e5                	mov    %esp,%ebp
   12aa0:	57                   	push   %edi
   12aa1:	56                   	push   %esi
   12aa2:	53                   	push   %ebx
   12aa3:	83 ec 6c             	sub    $0x6c,%esp
   12aa6:	83 ec 0c             	sub    $0xc,%esp
   12aa9:	68 b2 7c 01 00       	push   $0x17cb2
   12aae:	e8 e6 e4 ff ff       	call   10f99 <__cio_puts>
   12ab3:	83 c4 10             	add    $0x10,%esp
   12ab6:	c7 05 18 b6 01 00 00 	movl   $0x0,0x1b618
   12abd:	00 00 00 
   12ac0:	c7 05 14 b6 01 00 00 	movl   $0x0,0x1b614
   12ac7:	00 00 00 
   12aca:	b8 bc d2 01 00       	mov    $0x1d2bc,%eax
   12acf:	89 45 d8             	mov    %eax,-0x28(%ebp)
   12ad2:	c7 45 dc 00 00 00 00 	movl   $0x0,-0x24(%ebp)
   12ad9:	8b 45 d8             	mov    -0x28(%ebp),%eax
   12adc:	25 ff 0f 00 00       	and    $0xfff,%eax
   12ae1:	89 45 90             	mov    %eax,-0x70(%ebp)
   12ae4:	8b 45 dc             	mov    -0x24(%ebp),%eax
   12ae7:	83 e0 00             	and    $0x0,%eax
   12aea:	89 45 94             	mov    %eax,-0x6c(%ebp)
   12aed:	8b 45 90             	mov    -0x70(%ebp),%eax
   12af0:	8b 55 94             	mov    -0x6c(%ebp),%edx
   12af3:	89 c3                	mov    %eax,%ebx
   12af5:	80 f7 00             	xor    $0x0,%bh
   12af8:	89 de                	mov    %ebx,%esi
   12afa:	89 d0                	mov    %edx,%eax
   12afc:	80 f4 00             	xor    $0x0,%ah
   12aff:	89 c7                	mov    %eax,%edi
   12b01:	89 f8                	mov    %edi,%eax
   12b03:	09 f0                	or     %esi,%eax
   12b05:	85 c0                	test   %eax,%eax
   12b07:	74 16                	je     12b1f <_km_init+0x86>
   12b09:	81 65 d8 00 f0 ff ff 	andl   $0xfffff000,-0x28(%ebp)
   12b10:	83 65 dc 00          	andl   $0x0,-0x24(%ebp)
   12b14:	81 45 d8 00 10 00 00 	addl   $0x1000,-0x28(%ebp)
   12b1b:	83 55 dc 00          	adcl   $0x0,-0x24(%ebp)
   12b1f:	b8 00 2d 00 00       	mov    $0x2d00,%eax
   12b24:	8b 00                	mov    (%eax),%eax
   12b26:	89 45 bc             	mov    %eax,-0x44(%ebp)
   12b29:	83 7d bc 00          	cmpl   $0x0,-0x44(%ebp)
   12b2d:	0f 8e 5d 01 00 00    	jle    12c90 <_km_init+0x1f7>
   12b33:	c7 45 e4 04 2d 00 00 	movl   $0x2d04,-0x1c(%ebp)
   12b3a:	c7 45 d4 00 00 00 00 	movl   $0x0,-0x2c(%ebp)
   12b41:	e9 22 01 00 00       	jmp    12c68 <_km_init+0x1cf>
   12b46:	8b 45 e4             	mov    -0x1c(%ebp),%eax
   12b49:	8b 40 14             	mov    0x14(%eax),%eax
   12b4c:	83 e0 01             	and    $0x1,%eax
   12b4f:	85 c0                	test   %eax,%eax
   12b51:	0f 84 fc 00 00 00    	je     12c53 <_km_init+0x1ba>
   12b57:	8b 45 e4             	mov    -0x1c(%ebp),%eax
   12b5a:	8b 40 14             	mov    0x14(%eax),%eax
   12b5d:	83 e0 02             	and    $0x2,%eax
   12b60:	85 c0                	test   %eax,%eax
   12b62:	0f 85 ee 00 00 00    	jne    12c56 <_km_init+0x1bd>
   12b68:	8b 45 e4             	mov    -0x1c(%ebp),%eax
   12b6b:	8b 40 10             	mov    0x10(%eax),%eax
   12b6e:	83 f8 01             	cmp    $0x1,%eax
   12b71:	0f 85 e2 00 00 00    	jne    12c59 <_km_init+0x1c0>
   12b77:	8b 45 e4             	mov    -0x1c(%ebp),%eax
   12b7a:	8b 40 04             	mov    0x4(%eax),%eax
   12b7d:	85 c0                	test   %eax,%eax
   12b7f:	0f 85 d7 00 00 00    	jne    12c5c <_km_init+0x1c3>
   12b85:	8b 45 e4             	mov    -0x1c(%ebp),%eax
   12b88:	8b 50 04             	mov    0x4(%eax),%edx
   12b8b:	8b 00                	mov    (%eax),%eax
   12b8d:	89 45 c8             	mov    %eax,-0x38(%ebp)
   12b90:	89 55 cc             	mov    %edx,-0x34(%ebp)
   12b93:	8b 45 e4             	mov    -0x1c(%ebp),%eax
   12b96:	8b 50 0c             	mov    0xc(%eax),%edx
   12b99:	8b 40 08             	mov    0x8(%eax),%eax
   12b9c:	89 45 c0             	mov    %eax,-0x40(%ebp)
   12b9f:	89 55 c4             	mov    %edx,-0x3c(%ebp)
   12ba2:	8b 45 c8             	mov    -0x38(%ebp),%eax
   12ba5:	8b 55 cc             	mov    -0x34(%ebp),%edx
   12ba8:	3b 45 d8             	cmp    -0x28(%ebp),%eax
   12bab:	89 d0                	mov    %edx,%eax
   12bad:	1b 45 dc             	sbb    -0x24(%ebp),%eax
   12bb0:	73 48                	jae    12bfa <_km_init+0x161>
   12bb2:	8b 4d c8             	mov    -0x38(%ebp),%ecx
   12bb5:	8b 5d cc             	mov    -0x34(%ebp),%ebx
   12bb8:	8b 45 c0             	mov    -0x40(%ebp),%eax
   12bbb:	8b 55 c4             	mov    -0x3c(%ebp),%edx
   12bbe:	01 c8                	add    %ecx,%eax
   12bc0:	11 da                	adc    %ebx,%edx
   12bc2:	3b 45 d8             	cmp    -0x28(%ebp),%eax
   12bc5:	89 d0                	mov    %edx,%eax
   12bc7:	1b 45 dc             	sbb    -0x24(%ebp),%eax
   12bca:	0f 82 8f 00 00 00    	jb     12c5f <_km_init+0x1c6>
   12bd0:	8b 45 d8             	mov    -0x28(%ebp),%eax
   12bd3:	8b 55 dc             	mov    -0x24(%ebp),%edx
   12bd6:	2b 45 c8             	sub    -0x38(%ebp),%eax
   12bd9:	1b 55 cc             	sbb    -0x34(%ebp),%edx
   12bdc:	89 45 b0             	mov    %eax,-0x50(%ebp)
   12bdf:	89 55 b4             	mov    %edx,-0x4c(%ebp)
   12be2:	8b 45 b0             	mov    -0x50(%ebp),%eax
   12be5:	8b 55 b4             	mov    -0x4c(%ebp),%edx
   12be8:	29 45 c0             	sub    %eax,-0x40(%ebp)
   12beb:	19 55 c4             	sbb    %edx,-0x3c(%ebp)
   12bee:	8b 45 d8             	mov    -0x28(%ebp),%eax
   12bf1:	8b 55 dc             	mov    -0x24(%ebp),%edx
   12bf4:	89 45 c8             	mov    %eax,-0x38(%ebp)
   12bf7:	89 55 cc             	mov    %edx,-0x34(%ebp)
   12bfa:	8b 4d c8             	mov    -0x38(%ebp),%ecx
   12bfd:	8b 5d cc             	mov    -0x34(%ebp),%ebx
   12c00:	8b 45 c0             	mov    -0x40(%ebp),%eax
   12c03:	8b 55 c4             	mov    -0x3c(%ebp),%edx
   12c06:	01 c8                	add    %ecx,%eax
   12c08:	11 da                	adc    %ebx,%edx
   12c0a:	83 fa 00             	cmp    $0x0,%edx
   12c0d:	76 25                	jbe    12c34 <_km_init+0x19b>
   12c0f:	8b 4d c8             	mov    -0x38(%ebp),%ecx
   12c12:	8b 5d cc             	mov    -0x34(%ebp),%ebx
   12c15:	8b 45 c0             	mov    -0x40(%ebp),%eax
   12c18:	8b 55 c4             	mov    -0x3c(%ebp),%edx
   12c1b:	01 c8                	add    %ecx,%eax
   12c1d:	11 da                	adc    %ebx,%edx
   12c1f:	83 ea 01             	sub    $0x1,%edx
   12c22:	89 45 a8             	mov    %eax,-0x58(%ebp)
   12c25:	89 55 ac             	mov    %edx,-0x54(%ebp)
   12c28:	8b 45 a8             	mov    -0x58(%ebp),%eax
   12c2b:	8b 55 ac             	mov    -0x54(%ebp),%edx
   12c2e:	29 45 c0             	sub    %eax,-0x40(%ebp)
   12c31:	19 55 c4             	sbb    %edx,-0x3c(%ebp)
   12c34:	8b 45 c8             	mov    -0x38(%ebp),%eax
   12c37:	89 45 a4             	mov    %eax,-0x5c(%ebp)
   12c3a:	8b 45 c0             	mov    -0x40(%ebp),%eax
   12c3d:	89 45 a0             	mov    %eax,-0x60(%ebp)
   12c40:	83 ec 08             	sub    $0x8,%esp
   12c43:	ff 75 a0             	pushl  -0x60(%ebp)
   12c46:	ff 75 a4             	pushl  -0x5c(%ebp)
   12c49:	e8 58 fd ff ff       	call   129a6 <_add_block>
   12c4e:	83 c4 10             	add    $0x10,%esp
   12c51:	eb 0d                	jmp    12c60 <_km_init+0x1c7>
   12c53:	90                   	nop
   12c54:	eb 0a                	jmp    12c60 <_km_init+0x1c7>
   12c56:	90                   	nop
   12c57:	eb 07                	jmp    12c60 <_km_init+0x1c7>
   12c59:	90                   	nop
   12c5a:	eb 04                	jmp    12c60 <_km_init+0x1c7>
   12c5c:	90                   	nop
   12c5d:	eb 01                	jmp    12c60 <_km_init+0x1c7>
   12c5f:	90                   	nop
   12c60:	83 45 d4 01          	addl   $0x1,-0x2c(%ebp)
   12c64:	83 45 e4 18          	addl   $0x18,-0x1c(%ebp)
   12c68:	8b 45 d4             	mov    -0x2c(%ebp),%eax
   12c6b:	3b 45 bc             	cmp    -0x44(%ebp),%eax
   12c6e:	0f 8c d2 fe ff ff    	jl     12b46 <_km_init+0xad>
   12c74:	c7 05 1c b6 01 00 01 	movl   $0x1,0x1b61c
   12c7b:	00 00 00 
   12c7e:	83 ec 0c             	sub    $0xc,%esp
   12c81:	68 b9 7c 01 00       	push   $0x17cb9
   12c86:	e8 0e e3 ff ff       	call   10f99 <__cio_puts>
   12c8b:	83 c4 10             	add    $0x10,%esp
   12c8e:	eb 01                	jmp    12c91 <_km_init+0x1f8>
   12c90:	90                   	nop
   12c91:	8d 65 f4             	lea    -0xc(%ebp),%esp
   12c94:	5b                   	pop    %ebx
   12c95:	5e                   	pop    %esi
   12c96:	5f                   	pop    %edi
   12c97:	5d                   	pop    %ebp
   12c98:	c3                   	ret    

00012c99 <_km_dump>:
   12c99:	f3 0f 1e fb          	endbr32 
   12c9d:	55                   	push   %ebp
   12c9e:	89 e5                	mov    %esp,%ebp
   12ca0:	83 ec 18             	sub    $0x18,%esp
   12ca3:	83 ec 08             	sub    $0x8,%esp
   12ca6:	68 14 b6 01 00       	push   $0x1b614
   12cab:	68 bf 7c 01 00       	push   $0x17cbf
   12cb0:	e8 41 e9 ff ff       	call   115f6 <__cio_printf>
   12cb5:	83 c4 10             	add    $0x10,%esp
   12cb8:	a1 14 b6 01 00       	mov    0x1b614,%eax
   12cbd:	89 45 f4             	mov    %eax,-0xc(%ebp)
   12cc0:	eb 39                	jmp    12cfb <_km_dump+0x62>
   12cc2:	8b 45 f4             	mov    -0xc(%ebp),%eax
   12cc5:	8b 50 04             	mov    0x4(%eax),%edx
   12cc8:	8b 45 f4             	mov    -0xc(%ebp),%eax
   12ccb:	8b 00                	mov    (%eax),%eax
   12ccd:	c1 e0 0c             	shl    $0xc,%eax
   12cd0:	89 c1                	mov    %eax,%ecx
   12cd2:	8b 45 f4             	mov    -0xc(%ebp),%eax
   12cd5:	01 c1                	add    %eax,%ecx
   12cd7:	8b 45 f4             	mov    -0xc(%ebp),%eax
   12cda:	8b 00                	mov    (%eax),%eax
   12cdc:	83 ec 0c             	sub    $0xc,%esp
   12cdf:	52                   	push   %edx
   12ce0:	51                   	push   %ecx
   12ce1:	50                   	push   %eax
   12ce2:	ff 75 f4             	pushl  -0xc(%ebp)
   12ce5:	68 d4 7c 01 00       	push   $0x17cd4
   12cea:	e8 07 e9 ff ff       	call   115f6 <__cio_printf>
   12cef:	83 c4 20             	add    $0x20,%esp
   12cf2:	8b 45 f4             	mov    -0xc(%ebp),%eax
   12cf5:	8b 40 04             	mov    0x4(%eax),%eax
   12cf8:	89 45 f4             	mov    %eax,-0xc(%ebp)
   12cfb:	83 7d f4 00          	cmpl   $0x0,-0xc(%ebp)
   12cff:	75 c1                	jne    12cc2 <_km_dump+0x29>
   12d01:	90                   	nop
   12d02:	90                   	nop
   12d03:	c9                   	leave  
   12d04:	c3                   	ret    

00012d05 <_km_page_alloc>:
   12d05:	f3 0f 1e fb          	endbr32 
   12d09:	55                   	push   %ebp
   12d0a:	89 e5                	mov    %esp,%ebp
   12d0c:	83 ec 28             	sub    $0x28,%esp
   12d0f:	a1 1c b6 01 00       	mov    0x1b61c,%eax
   12d14:	85 c0                	test   %eax,%eax
   12d16:	75 3b                	jne    12d53 <_km_page_alloc+0x4e>
   12d18:	83 ec 08             	sub    $0x8,%esp
   12d1b:	6a 00                	push   $0x0
   12d1d:	68 a9 01 00 00       	push   $0x1a9
   12d22:	68 8c 7c 01 00       	push   $0x17c8c
   12d27:	68 38 7d 01 00       	push   $0x17d38
   12d2c:	68 93 7c 01 00       	push   $0x17c93
   12d31:	68 e0 ce 01 00       	push   $0x1cee0
   12d36:	e8 03 f8 ff ff       	call   1253e <__sprint>
   12d3b:	83 c4 20             	add    $0x20,%esp
   12d3e:	83 ec 08             	sub    $0x8,%esp
   12d41:	68 10 7d 01 00       	push   $0x17d10
   12d46:	68 e0 ce 01 00       	push   $0x1cee0
   12d4b:	e8 05 fc ff ff       	call   12955 <_kpanic>
   12d50:	83 c4 10             	add    $0x10,%esp
   12d53:	83 7d 08 00          	cmpl   $0x0,0x8(%ebp)
   12d57:	75 0a                	jne    12d63 <_km_page_alloc+0x5e>
   12d59:	b8 00 00 00 00       	mov    $0x0,%eax
   12d5e:	e9 9c 00 00 00       	jmp    12dff <_km_page_alloc+0xfa>
   12d63:	a1 14 b6 01 00       	mov    0x1b614,%eax
   12d68:	89 45 f4             	mov    %eax,-0xc(%ebp)
   12d6b:	c7 45 f0 14 b6 01 00 	movl   $0x1b614,-0x10(%ebp)
   12d72:	eb 11                	jmp    12d85 <_km_page_alloc+0x80>
   12d74:	8b 45 f4             	mov    -0xc(%ebp),%eax
   12d77:	83 c0 04             	add    $0x4,%eax
   12d7a:	89 45 f0             	mov    %eax,-0x10(%ebp)
   12d7d:	8b 45 f0             	mov    -0x10(%ebp),%eax
   12d80:	8b 00                	mov    (%eax),%eax
   12d82:	89 45 f4             	mov    %eax,-0xc(%ebp)
   12d85:	83 7d f4 00          	cmpl   $0x0,-0xc(%ebp)
   12d89:	74 0a                	je     12d95 <_km_page_alloc+0x90>
   12d8b:	8b 45 f4             	mov    -0xc(%ebp),%eax
   12d8e:	8b 00                	mov    (%eax),%eax
   12d90:	39 45 08             	cmp    %eax,0x8(%ebp)
   12d93:	77 df                	ja     12d74 <_km_page_alloc+0x6f>
   12d95:	83 7d f4 00          	cmpl   $0x0,-0xc(%ebp)
   12d99:	75 07                	jne    12da2 <_km_page_alloc+0x9d>
   12d9b:	b8 00 00 00 00       	mov    $0x0,%eax
   12da0:	eb 5d                	jmp    12dff <_km_page_alloc+0xfa>
   12da2:	8b 45 f4             	mov    -0xc(%ebp),%eax
   12da5:	8b 00                	mov    (%eax),%eax
   12da7:	39 45 08             	cmp    %eax,0x8(%ebp)
   12daa:	75 0d                	jne    12db9 <_km_page_alloc+0xb4>
   12dac:	8b 45 f4             	mov    -0xc(%ebp),%eax
   12daf:	8b 50 04             	mov    0x4(%eax),%edx
   12db2:	8b 45 f0             	mov    -0x10(%ebp),%eax
   12db5:	89 10                	mov    %edx,(%eax)
   12db7:	eb 43                	jmp    12dfc <_km_page_alloc+0xf7>
   12db9:	8b 45 f4             	mov    -0xc(%ebp),%eax
   12dbc:	89 45 ec             	mov    %eax,-0x14(%ebp)
   12dbf:	8b 45 f4             	mov    -0xc(%ebp),%eax
   12dc2:	8b 00                	mov    (%eax),%eax
   12dc4:	2b 45 08             	sub    0x8(%ebp),%eax
   12dc7:	89 45 e8             	mov    %eax,-0x18(%ebp)
   12dca:	8b 45 08             	mov    0x8(%ebp),%eax
   12dcd:	c1 e0 0c             	shl    $0xc,%eax
   12dd0:	89 c2                	mov    %eax,%edx
   12dd2:	8b 45 f4             	mov    -0xc(%ebp),%eax
   12dd5:	01 d0                	add    %edx,%eax
   12dd7:	89 45 e4             	mov    %eax,-0x1c(%ebp)
   12dda:	8b 55 e8             	mov    -0x18(%ebp),%edx
   12ddd:	8b 45 e4             	mov    -0x1c(%ebp),%eax
   12de0:	89 10                	mov    %edx,(%eax)
   12de2:	8b 45 f4             	mov    -0xc(%ebp),%eax
   12de5:	8b 50 04             	mov    0x4(%eax),%edx
   12de8:	8b 45 e4             	mov    -0x1c(%ebp),%eax
   12deb:	89 50 04             	mov    %edx,0x4(%eax)
   12dee:	8b 45 f0             	mov    -0x10(%ebp),%eax
   12df1:	8b 55 e4             	mov    -0x1c(%ebp),%edx
   12df4:	89 10                	mov    %edx,(%eax)
   12df6:	8b 45 ec             	mov    -0x14(%ebp),%eax
   12df9:	89 45 f4             	mov    %eax,-0xc(%ebp)
   12dfc:	8b 45 f4             	mov    -0xc(%ebp),%eax
   12dff:	c9                   	leave  
   12e00:	c3                   	ret    

00012e01 <_km_page_free>:
   12e01:	f3 0f 1e fb          	endbr32 
   12e05:	55                   	push   %ebp
   12e06:	89 e5                	mov    %esp,%ebp
   12e08:	83 ec 18             	sub    $0x18,%esp
   12e0b:	a1 1c b6 01 00       	mov    0x1b61c,%eax
   12e10:	85 c0                	test   %eax,%eax
   12e12:	75 3b                	jne    12e4f <_km_page_free+0x4e>
   12e14:	83 ec 08             	sub    $0x8,%esp
   12e17:	6a 00                	push   $0x0
   12e19:	68 f9 01 00 00       	push   $0x1f9
   12e1e:	68 8c 7c 01 00       	push   $0x17c8c
   12e23:	68 48 7d 01 00       	push   $0x17d48
   12e28:	68 93 7c 01 00       	push   $0x17c93
   12e2d:	68 e0 ce 01 00       	push   $0x1cee0
   12e32:	e8 07 f7 ff ff       	call   1253e <__sprint>
   12e37:	83 c4 20             	add    $0x20,%esp
   12e3a:	83 ec 08             	sub    $0x8,%esp
   12e3d:	68 10 7d 01 00       	push   $0x17d10
   12e42:	68 e0 ce 01 00       	push   $0x1cee0
   12e47:	e8 09 fb ff ff       	call   12955 <_kpanic>
   12e4c:	83 c4 10             	add    $0x10,%esp
   12e4f:	83 7d 08 00          	cmpl   $0x0,0x8(%ebp)
   12e53:	0f 84 d4 00 00 00    	je     12f2d <_km_page_free+0x12c>
   12e59:	8b 45 08             	mov    0x8(%ebp),%eax
   12e5c:	89 45 f4             	mov    %eax,-0xc(%ebp)
   12e5f:	8b 45 f4             	mov    -0xc(%ebp),%eax
   12e62:	c7 00 01 00 00 00    	movl   $0x1,(%eax)
   12e68:	c7 45 f0 00 00 00 00 	movl   $0x0,-0x10(%ebp)
   12e6f:	a1 14 b6 01 00       	mov    0x1b614,%eax
   12e74:	89 45 ec             	mov    %eax,-0x14(%ebp)
   12e77:	eb 0f                	jmp    12e88 <_km_page_free+0x87>
   12e79:	8b 45 ec             	mov    -0x14(%ebp),%eax
   12e7c:	89 45 f0             	mov    %eax,-0x10(%ebp)
   12e7f:	8b 45 ec             	mov    -0x14(%ebp),%eax
   12e82:	8b 40 04             	mov    0x4(%eax),%eax
   12e85:	89 45 ec             	mov    %eax,-0x14(%ebp)
   12e88:	83 7d ec 00          	cmpl   $0x0,-0x14(%ebp)
   12e8c:	74 08                	je     12e96 <_km_page_free+0x95>
   12e8e:	8b 45 ec             	mov    -0x14(%ebp),%eax
   12e91:	3b 45 f4             	cmp    -0xc(%ebp),%eax
   12e94:	72 e3                	jb     12e79 <_km_page_free+0x78>
   12e96:	83 7d f0 00          	cmpl   $0x0,-0x10(%ebp)
   12e9a:	74 44                	je     12ee0 <_km_page_free+0xdf>
   12e9c:	8b 45 f0             	mov    -0x10(%ebp),%eax
   12e9f:	8b 00                	mov    (%eax),%eax
   12ea1:	c1 e0 0c             	shl    $0xc,%eax
   12ea4:	89 c2                	mov    %eax,%edx
   12ea6:	8b 45 f0             	mov    -0x10(%ebp),%eax
   12ea9:	01 d0                	add    %edx,%eax
   12eab:	39 45 f4             	cmp    %eax,-0xc(%ebp)
   12eae:	75 19                	jne    12ec9 <_km_page_free+0xc8>
   12eb0:	8b 45 f0             	mov    -0x10(%ebp),%eax
   12eb3:	8b 10                	mov    (%eax),%edx
   12eb5:	8b 45 f4             	mov    -0xc(%ebp),%eax
   12eb8:	8b 00                	mov    (%eax),%eax
   12eba:	01 c2                	add    %eax,%edx
   12ebc:	8b 45 f0             	mov    -0x10(%ebp),%eax
   12ebf:	89 10                	mov    %edx,(%eax)
   12ec1:	8b 45 f0             	mov    -0x10(%ebp),%eax
   12ec4:	89 45 f4             	mov    %eax,-0xc(%ebp)
   12ec7:	eb 2b                	jmp    12ef4 <_km_page_free+0xf3>
   12ec9:	8b 45 f0             	mov    -0x10(%ebp),%eax
   12ecc:	8b 50 04             	mov    0x4(%eax),%edx
   12ecf:	8b 45 f4             	mov    -0xc(%ebp),%eax
   12ed2:	89 50 04             	mov    %edx,0x4(%eax)
   12ed5:	8b 45 f0             	mov    -0x10(%ebp),%eax
   12ed8:	8b 55 f4             	mov    -0xc(%ebp),%edx
   12edb:	89 50 04             	mov    %edx,0x4(%eax)
   12ede:	eb 14                	jmp    12ef4 <_km_page_free+0xf3>
   12ee0:	8b 15 14 b6 01 00    	mov    0x1b614,%edx
   12ee6:	8b 45 f4             	mov    -0xc(%ebp),%eax
   12ee9:	89 50 04             	mov    %edx,0x4(%eax)
   12eec:	8b 45 f4             	mov    -0xc(%ebp),%eax
   12eef:	a3 14 b6 01 00       	mov    %eax,0x1b614
   12ef4:	83 7d ec 00          	cmpl   $0x0,-0x14(%ebp)
   12ef8:	74 34                	je     12f2e <_km_page_free+0x12d>
   12efa:	8b 45 f4             	mov    -0xc(%ebp),%eax
   12efd:	8b 00                	mov    (%eax),%eax
   12eff:	c1 e0 0c             	shl    $0xc,%eax
   12f02:	89 c2                	mov    %eax,%edx
   12f04:	8b 45 f4             	mov    -0xc(%ebp),%eax
   12f07:	01 d0                	add    %edx,%eax
   12f09:	39 45 ec             	cmp    %eax,-0x14(%ebp)
   12f0c:	75 20                	jne    12f2e <_km_page_free+0x12d>
   12f0e:	8b 45 ec             	mov    -0x14(%ebp),%eax
   12f11:	8b 50 04             	mov    0x4(%eax),%edx
   12f14:	8b 45 f4             	mov    -0xc(%ebp),%eax
   12f17:	89 50 04             	mov    %edx,0x4(%eax)
   12f1a:	8b 45 f4             	mov    -0xc(%ebp),%eax
   12f1d:	8b 10                	mov    (%eax),%edx
   12f1f:	8b 45 ec             	mov    -0x14(%ebp),%eax
   12f22:	8b 00                	mov    (%eax),%eax
   12f24:	01 c2                	add    %eax,%edx
   12f26:	8b 45 f4             	mov    -0xc(%ebp),%eax
   12f29:	89 10                	mov    %edx,(%eax)
   12f2b:	eb 01                	jmp    12f2e <_km_page_free+0x12d>
   12f2d:	90                   	nop
   12f2e:	c9                   	leave  
   12f2f:	c3                   	ret    

00012f30 <_carve_slices>:
   12f30:	f3 0f 1e fb          	endbr32 
   12f34:	55                   	push   %ebp
   12f35:	89 e5                	mov    %esp,%ebp
   12f37:	83 ec 18             	sub    $0x18,%esp
   12f3a:	83 ec 0c             	sub    $0xc,%esp
   12f3d:	6a 01                	push   $0x1
   12f3f:	e8 c1 fd ff ff       	call   12d05 <_km_page_alloc>
   12f44:	83 c4 10             	add    $0x10,%esp
   12f47:	89 45 ec             	mov    %eax,-0x14(%ebp)
   12f4a:	83 7d ec 00          	cmpl   $0x0,-0x14(%ebp)
   12f4e:	75 3b                	jne    12f8b <_carve_slices+0x5b>
   12f50:	83 ec 08             	sub    $0x8,%esp
   12f53:	6a 00                	push   $0x0
   12f55:	68 7c 02 00 00       	push   $0x27c
   12f5a:	68 8c 7c 01 00       	push   $0x17c8c
   12f5f:	68 58 7d 01 00       	push   $0x17d58
   12f64:	68 93 7c 01 00       	push   $0x17c93
   12f69:	68 e0 ce 01 00       	push   $0x1cee0
   12f6e:	e8 cb f5 ff ff       	call   1253e <__sprint>
   12f73:	83 c4 20             	add    $0x20,%esp
   12f76:	83 ec 08             	sub    $0x8,%esp
   12f79:	68 20 7d 01 00       	push   $0x17d20
   12f7e:	68 e0 ce 01 00       	push   $0x1cee0
   12f83:	e8 cd f9 ff ff       	call   12955 <_kpanic>
   12f88:	83 c4 10             	add    $0x10,%esp
   12f8b:	8b 45 ec             	mov    -0x14(%ebp),%eax
   12f8e:	89 45 f4             	mov    %eax,-0xc(%ebp)
   12f91:	c7 45 f0 00 00 00 00 	movl   $0x0,-0x10(%ebp)
   12f98:	eb 19                	jmp    12fb3 <_carve_slices+0x83>
   12f9a:	83 ec 0c             	sub    $0xc,%esp
   12f9d:	ff 75 f4             	pushl  -0xc(%ebp)
   12fa0:	e8 e0 00 00 00       	call   13085 <_km_slice_free>
   12fa5:	83 c4 10             	add    $0x10,%esp
   12fa8:	81 45 f4 00 04 00 00 	addl   $0x400,-0xc(%ebp)
   12faf:	83 45 f0 01          	addl   $0x1,-0x10(%ebp)
   12fb3:	83 7d f0 03          	cmpl   $0x3,-0x10(%ebp)
   12fb7:	7e e1                	jle    12f9a <_carve_slices+0x6a>
   12fb9:	90                   	nop
   12fba:	90                   	nop
   12fbb:	c9                   	leave  
   12fbc:	c3                   	ret    

00012fbd <_km_slice_alloc>:
   12fbd:	f3 0f 1e fb          	endbr32 
   12fc1:	55                   	push   %ebp
   12fc2:	89 e5                	mov    %esp,%ebp
   12fc4:	83 ec 18             	sub    $0x18,%esp
   12fc7:	a1 1c b6 01 00       	mov    0x1b61c,%eax
   12fcc:	85 c0                	test   %eax,%eax
   12fce:	75 3b                	jne    1300b <_km_slice_alloc+0x4e>
   12fd0:	83 ec 08             	sub    $0x8,%esp
   12fd3:	6a 00                	push   $0x0
   12fd5:	68 91 02 00 00       	push   $0x291
   12fda:	68 8c 7c 01 00       	push   $0x17c8c
   12fdf:	68 68 7d 01 00       	push   $0x17d68
   12fe4:	68 93 7c 01 00       	push   $0x17c93
   12fe9:	68 e0 ce 01 00       	push   $0x1cee0
   12fee:	e8 4b f5 ff ff       	call   1253e <__sprint>
   12ff3:	83 c4 20             	add    $0x20,%esp
   12ff6:	83 ec 08             	sub    $0x8,%esp
   12ff9:	68 10 7d 01 00       	push   $0x17d10
   12ffe:	68 e0 ce 01 00       	push   $0x1cee0
   13003:	e8 4d f9 ff ff       	call   12955 <_kpanic>
   13008:	83 c4 10             	add    $0x10,%esp
   1300b:	a1 18 b6 01 00       	mov    0x1b618,%eax
   13010:	85 c0                	test   %eax,%eax
   13012:	75 05                	jne    13019 <_km_slice_alloc+0x5c>
   13014:	e8 17 ff ff ff       	call   12f30 <_carve_slices>
   13019:	a1 18 b6 01 00       	mov    0x1b618,%eax
   1301e:	89 45 f4             	mov    %eax,-0xc(%ebp)
   13021:	83 7d f4 00          	cmpl   $0x0,-0xc(%ebp)
   13025:	75 3b                	jne    13062 <_km_slice_alloc+0xa5>
   13027:	83 ec 08             	sub    $0x8,%esp
   1302a:	6a 00                	push   $0x0
   1302c:	68 9a 02 00 00       	push   $0x29a
   13031:	68 8c 7c 01 00       	push   $0x17c8c
   13036:	68 68 7d 01 00       	push   $0x17d68
   1303b:	68 93 7c 01 00       	push   $0x17c93
   13040:	68 e0 ce 01 00       	push   $0x1cee0
   13045:	e8 f4 f4 ff ff       	call   1253e <__sprint>
   1304a:	83 c4 20             	add    $0x20,%esp
   1304d:	83 ec 08             	sub    $0x8,%esp
   13050:	68 25 7d 01 00       	push   $0x17d25
   13055:	68 e0 ce 01 00       	push   $0x1cee0
   1305a:	e8 f6 f8 ff ff       	call   12955 <_kpanic>
   1305f:	83 c4 10             	add    $0x10,%esp
   13062:	8b 45 f4             	mov    -0xc(%ebp),%eax
   13065:	8b 40 04             	mov    0x4(%eax),%eax
   13068:	a3 18 b6 01 00       	mov    %eax,0x1b618
   1306d:	83 ec 08             	sub    $0x8,%esp
   13070:	68 00 04 00 00       	push   $0x400
   13075:	ff 75 f4             	pushl  -0xc(%ebp)
   13078:	e8 dd f2 ff ff       	call   1235a <__memclr>
   1307d:	83 c4 10             	add    $0x10,%esp
   13080:	8b 45 f4             	mov    -0xc(%ebp),%eax
   13083:	c9                   	leave  
   13084:	c3                   	ret    

00013085 <_km_slice_free>:
   13085:	f3 0f 1e fb          	endbr32 
   13089:	55                   	push   %ebp
   1308a:	89 e5                	mov    %esp,%ebp
   1308c:	83 ec 18             	sub    $0x18,%esp
   1308f:	8b 45 08             	mov    0x8(%ebp),%eax
   13092:	89 45 f4             	mov    %eax,-0xc(%ebp)
   13095:	a1 1c b6 01 00       	mov    0x1b61c,%eax
   1309a:	85 c0                	test   %eax,%eax
   1309c:	75 3b                	jne    130d9 <_km_slice_free+0x54>
   1309e:	83 ec 08             	sub    $0x8,%esp
   130a1:	6a 00                	push   $0x0
   130a3:	68 b2 02 00 00       	push   $0x2b2
   130a8:	68 8c 7c 01 00       	push   $0x17c8c
   130ad:	68 78 7d 01 00       	push   $0x17d78
   130b2:	68 93 7c 01 00       	push   $0x17c93
   130b7:	68 e0 ce 01 00       	push   $0x1cee0
   130bc:	e8 7d f4 ff ff       	call   1253e <__sprint>
   130c1:	83 c4 20             	add    $0x20,%esp
   130c4:	83 ec 08             	sub    $0x8,%esp
   130c7:	68 10 7d 01 00       	push   $0x17d10
   130cc:	68 e0 ce 01 00       	push   $0x1cee0
   130d1:	e8 7f f8 ff ff       	call   12955 <_kpanic>
   130d6:	83 c4 10             	add    $0x10,%esp
   130d9:	8b 45 f4             	mov    -0xc(%ebp),%eax
   130dc:	c7 00 00 04 00 00    	movl   $0x400,(%eax)
   130e2:	8b 15 18 b6 01 00    	mov    0x1b618,%edx
   130e8:	8b 45 f4             	mov    -0xc(%ebp),%eax
   130eb:	89 50 04             	mov    %edx,0x4(%eax)
   130ee:	8b 45 f4             	mov    -0xc(%ebp),%eax
   130f1:	a3 18 b6 01 00       	mov    %eax,0x1b618
   130f6:	90                   	nop
   130f7:	c9                   	leave  
   130f8:	c3                   	ret    

000130f9 <_new_pcbs>:
   130f9:	f3 0f 1e fb          	endbr32 
   130fd:	55                   	push   %ebp
   130fe:	89 e5                	mov    %esp,%ebp
   13100:	83 ec 28             	sub    $0x28,%esp
   13103:	8b 45 08             	mov    0x8(%ebp),%eax
   13106:	88 45 e4             	mov    %al,-0x1c(%ebp)
   13109:	e8 af fe ff ff       	call   12fbd <_km_slice_alloc>
   1310e:	89 45 f0             	mov    %eax,-0x10(%ebp)
   13111:	80 7d e4 00          	cmpb   $0x0,-0x1c(%ebp)
   13115:	74 3e                	je     13155 <_new_pcbs+0x5c>
   13117:	83 7d f0 00          	cmpl   $0x0,-0x10(%ebp)
   1311b:	75 38                	jne    13155 <_new_pcbs+0x5c>
   1311d:	83 ec 08             	sub    $0x8,%esp
   13120:	6a 00                	push   $0x0
   13122:	6a 46                	push   $0x46
   13124:	68 88 7d 01 00       	push   $0x17d88
   13129:	68 74 7f 01 00       	push   $0x17f74
   1312e:	68 92 7d 01 00       	push   $0x17d92
   13133:	68 e0 ce 01 00       	push   $0x1cee0
   13138:	e8 01 f4 ff ff       	call   1253e <__sprint>
   1313d:	83 c4 20             	add    $0x20,%esp
   13140:	83 ec 08             	sub    $0x8,%esp
   13143:	68 ac 7d 01 00       	push   $0x17dac
   13148:	68 e0 ce 01 00       	push   $0x1cee0
   1314d:	e8 03 f8 ff ff       	call   12955 <_kpanic>
   13152:	83 c4 10             	add    $0x10,%esp
   13155:	83 7d f0 00          	cmpl   $0x0,-0x10(%ebp)
   13159:	75 07                	jne    13162 <_new_pcbs+0x69>
   1315b:	b8 00 00 00 00       	mov    $0x0,%eax
   13160:	eb 46                	jmp    131a8 <_new_pcbs+0xaf>
   13162:	83 ec 08             	sub    $0x8,%esp
   13165:	68 00 04 00 00       	push   $0x400
   1316a:	ff 75 f0             	pushl  -0x10(%ebp)
   1316d:	e8 e8 f1 ff ff       	call   1235a <__memclr>
   13172:	83 c4 10             	add    $0x10,%esp
   13175:	c7 45 f4 00 00 00 00 	movl   $0x0,-0xc(%ebp)
   1317c:	eb 1d                	jmp    1319b <_new_pcbs+0xa2>
   1317e:	8b 45 f4             	mov    -0xc(%ebp),%eax
   13181:	c1 e0 05             	shl    $0x5,%eax
   13184:	89 c2                	mov    %eax,%edx
   13186:	8b 45 f0             	mov    -0x10(%ebp),%eax
   13189:	01 d0                	add    %edx,%eax
   1318b:	83 ec 0c             	sub    $0xc,%esp
   1318e:	50                   	push   %eax
   1318f:	e8 68 00 00 00       	call   131fc <_pcb_free>
   13194:	83 c4 10             	add    $0x10,%esp
   13197:	83 45 f4 01          	addl   $0x1,-0xc(%ebp)
   1319b:	8b 45 f4             	mov    -0xc(%ebp),%eax
   1319e:	83 f8 1f             	cmp    $0x1f,%eax
   131a1:	76 db                	jbe    1317e <_new_pcbs+0x85>
   131a3:	b8 01 00 00 00       	mov    $0x1,%eax
   131a8:	c9                   	leave  
   131a9:	c3                   	ret    

000131aa <_pcb_alloc>:
   131aa:	f3 0f 1e fb          	endbr32 
   131ae:	55                   	push   %ebp
   131af:	89 e5                	mov    %esp,%ebp
   131b1:	83 ec 18             	sub    $0x18,%esp
   131b4:	a1 20 b6 01 00       	mov    0x1b620,%eax
   131b9:	85 c0                	test   %eax,%eax
   131bb:	75 18                	jne    131d5 <_pcb_alloc+0x2b>
   131bd:	83 ec 0c             	sub    $0xc,%esp
   131c0:	6a 00                	push   $0x0
   131c2:	e8 32 ff ff ff       	call   130f9 <_new_pcbs>
   131c7:	83 c4 10             	add    $0x10,%esp
   131ca:	84 c0                	test   %al,%al
   131cc:	75 07                	jne    131d5 <_pcb_alloc+0x2b>
   131ce:	b8 00 00 00 00       	mov    $0x0,%eax
   131d3:	eb 25                	jmp    131fa <_pcb_alloc+0x50>
   131d5:	a1 20 b6 01 00       	mov    0x1b620,%eax
   131da:	89 45 f4             	mov    %eax,-0xc(%ebp)
   131dd:	8b 45 f4             	mov    -0xc(%ebp),%eax
   131e0:	8b 00                	mov    (%eax),%eax
   131e2:	a3 20 b6 01 00       	mov    %eax,0x1b620
   131e7:	83 ec 08             	sub    $0x8,%esp
   131ea:	6a 20                	push   $0x20
   131ec:	ff 75 f4             	pushl  -0xc(%ebp)
   131ef:	e8 66 f1 ff ff       	call   1235a <__memclr>
   131f4:	83 c4 10             	add    $0x10,%esp
   131f7:	8b 45 f4             	mov    -0xc(%ebp),%eax
   131fa:	c9                   	leave  
   131fb:	c3                   	ret    

000131fc <_pcb_free>:
   131fc:	f3 0f 1e fb          	endbr32 
   13200:	55                   	push   %ebp
   13201:	89 e5                	mov    %esp,%ebp
   13203:	83 7d 08 00          	cmpl   $0x0,0x8(%ebp)
   13207:	74 1c                	je     13225 <_pcb_free+0x29>
   13209:	8b 45 08             	mov    0x8(%ebp),%eax
   1320c:	c6 40 14 00          	movb   $0x0,0x14(%eax)
   13210:	8b 15 20 b6 01 00    	mov    0x1b620,%edx
   13216:	8b 45 08             	mov    0x8(%ebp),%eax
   13219:	89 10                	mov    %edx,(%eax)
   1321b:	8b 45 08             	mov    0x8(%ebp),%eax
   1321e:	a3 20 b6 01 00       	mov    %eax,0x1b620
   13223:	eb 01                	jmp    13226 <_pcb_free+0x2a>
   13225:	90                   	nop
   13226:	5d                   	pop    %ebp
   13227:	c3                   	ret    

00013228 <_pcb_find_pid>:
   13228:	f3 0f 1e fb          	endbr32 
   1322c:	55                   	push   %ebp
   1322d:	89 e5                	mov    %esp,%ebp
   1322f:	83 ec 14             	sub    $0x14,%esp
   13232:	8b 45 08             	mov    0x8(%ebp),%eax
   13235:	66 89 45 ec          	mov    %ax,-0x14(%ebp)
   13239:	c7 45 fc 00 00 00 00 	movl   $0x0,-0x4(%ebp)
   13240:	eb 32                	jmp    13274 <_pcb_find_pid+0x4c>
   13242:	8b 45 fc             	mov    -0x4(%ebp),%eax
   13245:	8b 04 85 40 d2 01 00 	mov    0x1d240(,%eax,4),%eax
   1324c:	85 c0                	test   %eax,%eax
   1324e:	74 20                	je     13270 <_pcb_find_pid+0x48>
   13250:	8b 45 fc             	mov    -0x4(%ebp),%eax
   13253:	8b 04 85 40 d2 01 00 	mov    0x1d240(,%eax,4),%eax
   1325a:	0f b7 40 10          	movzwl 0x10(%eax),%eax
   1325e:	66 39 45 ec          	cmp    %ax,-0x14(%ebp)
   13262:	75 0c                	jne    13270 <_pcb_find_pid+0x48>
   13264:	8b 45 fc             	mov    -0x4(%ebp),%eax
   13267:	8b 04 85 40 d2 01 00 	mov    0x1d240(,%eax,4),%eax
   1326e:	eb 0f                	jmp    1327f <_pcb_find_pid+0x57>
   13270:	83 45 fc 01          	addl   $0x1,-0x4(%ebp)
   13274:	83 7d fc 18          	cmpl   $0x18,-0x4(%ebp)
   13278:	7e c8                	jle    13242 <_pcb_find_pid+0x1a>
   1327a:	b8 00 00 00 00       	mov    $0x0,%eax
   1327f:	c9                   	leave  
   13280:	c3                   	ret    

00013281 <_pcb_cleanup>:
   13281:	f3 0f 1e fb          	endbr32 
   13285:	55                   	push   %ebp
   13286:	89 e5                	mov    %esp,%ebp
   13288:	83 ec 18             	sub    $0x18,%esp
   1328b:	83 7d 08 00          	cmpl   $0x0,0x8(%ebp)
   1328f:	74 5e                	je     132ef <_pcb_cleanup+0x6e>
   13291:	c7 45 f4 00 00 00 00 	movl   $0x0,-0xc(%ebp)
   13298:	eb 23                	jmp    132bd <_pcb_cleanup+0x3c>
   1329a:	8b 45 f4             	mov    -0xc(%ebp),%eax
   1329d:	8b 04 85 40 d2 01 00 	mov    0x1d240(,%eax,4),%eax
   132a4:	39 45 08             	cmp    %eax,0x8(%ebp)
   132a7:	75 10                	jne    132b9 <_pcb_cleanup+0x38>
   132a9:	8b 45 f4             	mov    -0xc(%ebp),%eax
   132ac:	c7 04 85 40 d2 01 00 	movl   $0x0,0x1d240(,%eax,4)
   132b3:	00 00 00 00 
   132b7:	eb 0a                	jmp    132c3 <_pcb_cleanup+0x42>
   132b9:	83 45 f4 01          	addl   $0x1,-0xc(%ebp)
   132bd:	83 7d f4 18          	cmpl   $0x18,-0xc(%ebp)
   132c1:	7e d7                	jle    1329a <_pcb_cleanup+0x19>
   132c3:	8b 45 08             	mov    0x8(%ebp),%eax
   132c6:	8b 40 04             	mov    0x4(%eax),%eax
   132c9:	85 c0                	test   %eax,%eax
   132cb:	74 12                	je     132df <_pcb_cleanup+0x5e>
   132cd:	8b 45 08             	mov    0x8(%ebp),%eax
   132d0:	8b 40 04             	mov    0x4(%eax),%eax
   132d3:	83 ec 0c             	sub    $0xc,%esp
   132d6:	50                   	push   %eax
   132d7:	e8 43 1a 00 00       	call   14d1f <_stk_free>
   132dc:	83 c4 10             	add    $0x10,%esp
   132df:	83 ec 0c             	sub    $0xc,%esp
   132e2:	ff 75 08             	pushl  0x8(%ebp)
   132e5:	e8 12 ff ff ff       	call   131fc <_pcb_free>
   132ea:	83 c4 10             	add    $0x10,%esp
   132ed:	eb 01                	jmp    132f0 <_pcb_cleanup+0x6f>
   132ef:	90                   	nop
   132f0:	c9                   	leave  
   132f1:	c3                   	ret    

000132f2 <_proc_init>:
   132f2:	f3 0f 1e fb          	endbr32 
   132f6:	55                   	push   %ebp
   132f7:	89 e5                	mov    %esp,%ebp
   132f9:	83 ec 18             	sub    $0x18,%esp
   132fc:	83 ec 0c             	sub    $0xc,%esp
   132ff:	68 c4 7d 01 00       	push   $0x17dc4
   13304:	e8 90 dc ff ff       	call   10f99 <__cio_puts>
   13309:	83 c4 10             	add    $0x10,%esp
   1330c:	c7 05 20 b6 01 00 00 	movl   $0x0,0x1b620
   13313:	00 00 00 
   13316:	83 ec 0c             	sub    $0xc,%esp
   13319:	6a 01                	push   $0x1
   1331b:	e8 d9 fd ff ff       	call   130f9 <_new_pcbs>
   13320:	83 c4 10             	add    $0x10,%esp
   13323:	c7 05 24 d2 01 00 00 	movl   $0x0,0x1d224
   1332a:	00 00 00 
   1332d:	c7 45 f4 00 00 00 00 	movl   $0x0,-0xc(%ebp)
   13334:	eb 12                	jmp    13348 <_proc_init+0x56>
   13336:	8b 45 f4             	mov    -0xc(%ebp),%eax
   13339:	c7 04 85 40 d2 01 00 	movl   $0x0,0x1d240(,%eax,4)
   13340:	00 00 00 00 
   13344:	83 45 f4 01          	addl   $0x1,-0xc(%ebp)
   13348:	83 7d f4 18          	cmpl   $0x18,-0xc(%ebp)
   1334c:	7e e8                	jle    13336 <_proc_init+0x44>
   1334e:	66 c7 05 20 d2 01 00 	movw   $0x2,0x1d220
   13355:	02 00 
   13357:	83 ec 0c             	sub    $0xc,%esp
   1335a:	68 ce 7d 01 00       	push   $0x17dce
   1335f:	e8 35 dc ff ff       	call   10f99 <__cio_puts>
   13364:	83 c4 10             	add    $0x10,%esp
   13367:	90                   	nop
   13368:	c9                   	leave  
   13369:	c3                   	ret    

0001336a <_proc_create>:
   1336a:	f3 0f 1e fb          	endbr32 
   1336e:	55                   	push   %ebp
   1336f:	89 e5                	mov    %esp,%ebp
   13371:	83 ec 28             	sub    $0x28,%esp
   13374:	8b 55 0c             	mov    0xc(%ebp),%edx
   13377:	8b 45 10             	mov    0x10(%ebp),%eax
   1337a:	66 89 55 e4          	mov    %dx,-0x1c(%ebp)
   1337e:	66 89 45 e0          	mov    %ax,-0x20(%ebp)
   13382:	e8 23 fe ff ff       	call   131aa <_pcb_alloc>
   13387:	89 45 f4             	mov    %eax,-0xc(%ebp)
   1338a:	83 7d f4 00          	cmpl   $0x0,-0xc(%ebp)
   1338e:	75 0a                	jne    1339a <_proc_create+0x30>
   13390:	b8 00 00 00 00       	mov    $0x0,%eax
   13395:	e9 29 01 00 00       	jmp    134c3 <_proc_create+0x159>
   1339a:	e8 31 19 00 00       	call   14cd0 <_stk_alloc>
   1339f:	89 45 f0             	mov    %eax,-0x10(%ebp)
   133a2:	83 7d f0 00          	cmpl   $0x0,-0x10(%ebp)
   133a6:	75 18                	jne    133c0 <_proc_create+0x56>
   133a8:	83 ec 0c             	sub    $0xc,%esp
   133ab:	ff 75 f4             	pushl  -0xc(%ebp)
   133ae:	e8 49 fe ff ff       	call   131fc <_pcb_free>
   133b3:	83 c4 10             	add    $0x10,%esp
   133b6:	b8 00 00 00 00       	mov    $0x0,%eax
   133bb:	e9 03 01 00 00       	jmp    134c3 <_proc_create+0x159>
   133c0:	8b 45 f4             	mov    -0xc(%ebp),%eax
   133c3:	8b 55 f0             	mov    -0x10(%ebp),%edx
   133c6:	89 50 04             	mov    %edx,0x4(%eax)
   133c9:	8b 45 f4             	mov    -0xc(%ebp),%eax
   133cc:	0f b7 55 e4          	movzwl -0x1c(%ebp),%edx
   133d0:	66 89 50 10          	mov    %dx,0x10(%eax)
   133d4:	8b 45 f4             	mov    -0xc(%ebp),%eax
   133d7:	0f b7 55 e0          	movzwl -0x20(%ebp),%edx
   133db:	66 89 50 12          	mov    %dx,0x12(%eax)
   133df:	8b 45 f4             	mov    -0xc(%ebp),%eax
   133e2:	c6 40 14 01          	movb   $0x1,0x14(%eax)
   133e6:	8b 45 08             	mov    0x8(%ebp),%eax
   133e9:	83 c0 04             	add    $0x4,%eax
   133ec:	8b 00                	mov    (%eax),%eax
   133ee:	89 c2                	mov    %eax,%edx
   133f0:	8b 45 f4             	mov    -0xc(%ebp),%eax
   133f3:	88 50 15             	mov    %dl,0x15(%eax)
   133f6:	8b 45 f4             	mov    -0xc(%ebp),%eax
   133f9:	c6 40 16 02          	movb   $0x2,0x16(%eax)
   133fd:	8b 45 f0             	mov    -0x10(%ebp),%eax
   13400:	05 00 40 00 00       	add    $0x4000,%eax
   13405:	83 e8 04             	sub    $0x4,%eax
   13408:	89 45 ec             	mov    %eax,-0x14(%ebp)
   1340b:	8b 45 ec             	mov    -0x14(%ebp),%eax
   1340e:	8d 50 fc             	lea    -0x4(%eax),%edx
   13411:	89 55 ec             	mov    %edx,-0x14(%ebp)
   13414:	c7 00 00 00 00 00    	movl   $0x0,(%eax)
   1341a:	8b 45 ec             	mov    -0x14(%ebp),%eax
   1341d:	8d 50 fc             	lea    -0x4(%eax),%edx
   13420:	89 55 ec             	mov    %edx,-0x14(%ebp)
   13423:	c7 00 00 00 00 00    	movl   $0x0,(%eax)
   13429:	8b 45 ec             	mov    -0x14(%ebp),%eax
   1342c:	8d 50 fc             	lea    -0x4(%eax),%edx
   1342f:	89 55 ec             	mov    %edx,-0x14(%ebp)
   13432:	8b 55 08             	mov    0x8(%ebp),%edx
   13435:	8b 52 0c             	mov    0xc(%edx),%edx
   13438:	89 10                	mov    %edx,(%eax)
   1343a:	8b 45 ec             	mov    -0x14(%ebp),%eax
   1343d:	8d 50 fc             	lea    -0x4(%eax),%edx
   13440:	89 55 ec             	mov    %edx,-0x14(%ebp)
   13443:	8b 55 08             	mov    0x8(%ebp),%edx
   13446:	8b 52 08             	mov    0x8(%edx),%edx
   13449:	89 10                	mov    %edx,(%eax)
   1344b:	ba 36 77 01 00       	mov    $0x17736,%edx
   13450:	8b 45 ec             	mov    -0x14(%ebp),%eax
   13453:	89 10                	mov    %edx,(%eax)
   13455:	8b 45 ec             	mov    -0x14(%ebp),%eax
   13458:	8d 50 b8             	lea    -0x48(%eax),%edx
   1345b:	8b 45 f4             	mov    -0xc(%ebp),%eax
   1345e:	89 10                	mov    %edx,(%eax)
   13460:	8b 45 f4             	mov    -0xc(%ebp),%eax
   13463:	8b 00                	mov    (%eax),%eax
   13465:	c7 00 20 00 00 00    	movl   $0x20,(%eax)
   1346b:	8b 45 f4             	mov    -0xc(%ebp),%eax
   1346e:	8b 00                	mov    (%eax),%eax
   13470:	c7 40 04 18 00 00 00 	movl   $0x18,0x4(%eax)
   13477:	8b 45 f4             	mov    -0xc(%ebp),%eax
   1347a:	8b 00                	mov    (%eax),%eax
   1347c:	c7 40 08 18 00 00 00 	movl   $0x18,0x8(%eax)
   13483:	8b 45 f4             	mov    -0xc(%ebp),%eax
   13486:	8b 00                	mov    (%eax),%eax
   13488:	c7 40 0c 18 00 00 00 	movl   $0x18,0xc(%eax)
   1348f:	8b 45 f4             	mov    -0xc(%ebp),%eax
   13492:	8b 00                	mov    (%eax),%eax
   13494:	c7 40 10 18 00 00 00 	movl   $0x18,0x10(%eax)
   1349b:	8b 45 f4             	mov    -0xc(%ebp),%eax
   1349e:	8b 00                	mov    (%eax),%eax
   134a0:	c7 40 40 10 00 00 00 	movl   $0x10,0x40(%eax)
   134a7:	8b 45 f4             	mov    -0xc(%ebp),%eax
   134aa:	8b 00                	mov    (%eax),%eax
   134ac:	8b 55 08             	mov    0x8(%ebp),%edx
   134af:	8b 12                	mov    (%edx),%edx
   134b1:	89 50 3c             	mov    %edx,0x3c(%eax)
   134b4:	8b 45 f4             	mov    -0xc(%ebp),%eax
   134b7:	8b 00                	mov    (%eax),%eax
   134b9:	c7 40 44 02 02 00 00 	movl   $0x202,0x44(%eax)
   134c0:	8b 45 f4             	mov    -0xc(%ebp),%eax
   134c3:	c9                   	leave  
   134c4:	c3                   	ret    

000134c5 <_pcb_dump>:
   134c5:	f3 0f 1e fb          	endbr32 
   134c9:	55                   	push   %ebp
   134ca:	89 e5                	mov    %esp,%ebp
   134cc:	56                   	push   %esi
   134cd:	53                   	push   %ebx
   134ce:	83 ec 10             	sub    $0x10,%esp
   134d1:	8b 5d 0c             	mov    0xc(%ebp),%ebx
   134d4:	83 7d 08 00          	cmpl   $0x0,0x8(%ebp)
   134d8:	74 13                	je     134ed <_pcb_dump+0x28>
   134da:	83 ec 08             	sub    $0x8,%esp
   134dd:	ff 75 08             	pushl  0x8(%ebp)
   134e0:	68 d4 7d 01 00       	push   $0x17dd4
   134e5:	e8 0c e1 ff ff       	call   115f6 <__cio_printf>
   134ea:	83 c4 10             	add    $0x10,%esp
   134ed:	89 d8                	mov    %ebx,%eax
   134ef:	83 ec 08             	sub    $0x8,%esp
   134f2:	50                   	push   %eax
   134f3:	68 d8 7d 01 00       	push   $0x17dd8
   134f8:	e8 f9 e0 ff ff       	call   115f6 <__cio_printf>
   134fd:	83 c4 10             	add    $0x10,%esp
   13500:	85 db                	test   %ebx,%ebx
   13502:	75 15                	jne    13519 <_pcb_dump+0x54>
   13504:	83 ec 0c             	sub    $0xc,%esp
   13507:	68 e1 7d 01 00       	push   $0x17de1
   1350c:	e8 88 da ff ff       	call   10f99 <__cio_puts>
   13511:	83 c4 10             	add    $0x10,%esp
   13514:	e9 cd 00 00 00       	jmp    135e6 <_pcb_dump+0x121>
   13519:	0f b6 43 15          	movzbl 0x15(%ebx),%eax
   1351d:	0f b6 f0             	movzbl %al,%esi
   13520:	0f b6 43 14          	movzbl 0x14(%ebx),%eax
   13524:	0f b6 c8             	movzbl %al,%ecx
   13527:	0f b7 43 12          	movzwl 0x12(%ebx),%eax
   1352b:	0f bf d0             	movswl %ax,%edx
   1352e:	0f b7 43 10          	movzwl 0x10(%ebx),%eax
   13532:	98                   	cwtl   
   13533:	83 ec 0c             	sub    $0xc,%esp
   13536:	56                   	push   %esi
   13537:	51                   	push   %ecx
   13538:	52                   	push   %edx
   13539:	50                   	push   %eax
   1353a:	68 eb 7d 01 00       	push   $0x17deb
   1353f:	e8 b2 e0 ff ff       	call   115f6 <__cio_printf>
   13544:	83 c4 20             	add    $0x20,%esp
   13547:	8b 4b 08             	mov    0x8(%ebx),%ecx
   1354a:	0f b6 43 16          	movzbl 0x16(%ebx),%eax
   1354e:	0f b6 d0             	movzbl %al,%edx
   13551:	0f b6 43 17          	movzbl 0x17(%ebx),%eax
   13555:	0f b6 c0             	movzbl %al,%eax
   13558:	51                   	push   %ecx
   13559:	52                   	push   %edx
   1355a:	50                   	push   %eax
   1355b:	68 08 7e 01 00       	push   $0x17e08
   13560:	e8 91 e0 ff ff       	call   115f6 <__cio_printf>
   13565:	83 c4 10             	add    $0x10,%esp
   13568:	8b 43 0c             	mov    0xc(%ebx),%eax
   1356b:	83 ec 08             	sub    $0x8,%esp
   1356e:	50                   	push   %eax
   1356f:	68 1d 7e 01 00       	push   $0x17e1d
   13574:	e8 7d e0 ff ff       	call   115f6 <__cio_printf>
   13579:	83 c4 10             	add    $0x10,%esp
   1357c:	8b 43 04             	mov    0x4(%ebx),%eax
   1357f:	89 c2                	mov    %eax,%edx
   13581:	8b 03                	mov    (%ebx),%eax
   13583:	83 ec 04             	sub    $0x4,%esp
   13586:	52                   	push   %edx
   13587:	50                   	push   %eax
   13588:	68 29 7e 01 00       	push   $0x17e29
   1358d:	e8 64 e0 ff ff       	call   115f6 <__cio_printf>
   13592:	83 c4 10             	add    $0x10,%esp
   13595:	83 ec 0c             	sub    $0xc,%esp
   13598:	68 43 7e 01 00       	push   $0x17e43
   1359d:	e8 f7 d9 ff ff       	call   10f99 <__cio_puts>
   135a2:	83 c4 10             	add    $0x10,%esp
   135a5:	c7 45 f4 00 00 00 00 	movl   $0x0,-0xc(%ebp)
   135ac:	eb 23                	jmp    135d1 <_pcb_dump+0x10c>
   135ae:	8b 45 f4             	mov    -0xc(%ebp),%eax
   135b1:	01 d8                	add    %ebx,%eax
   135b3:	83 c0 18             	add    $0x18,%eax
   135b6:	0f b6 00             	movzbl (%eax),%eax
   135b9:	0f b6 c0             	movzbl %al,%eax
   135bc:	83 ec 08             	sub    $0x8,%esp
   135bf:	50                   	push   %eax
   135c0:	68 4b 7e 01 00       	push   $0x17e4b
   135c5:	e8 2c e0 ff ff       	call   115f6 <__cio_printf>
   135ca:	83 c4 10             	add    $0x10,%esp
   135cd:	83 45 f4 01          	addl   $0x1,-0xc(%ebp)
   135d1:	8b 45 f4             	mov    -0xc(%ebp),%eax
   135d4:	83 f8 07             	cmp    $0x7,%eax
   135d7:	76 d5                	jbe    135ae <_pcb_dump+0xe9>
   135d9:	83 ec 0c             	sub    $0xc,%esp
   135dc:	6a 0a                	push   $0xa
   135de:	e8 6e d8 ff ff       	call   10e51 <__cio_putchar>
   135e3:	83 c4 10             	add    $0x10,%esp
   135e6:	8d 65 f8             	lea    -0x8(%ebp),%esp
   135e9:	5b                   	pop    %ebx
   135ea:	5e                   	pop    %esi
   135eb:	5d                   	pop    %ebp
   135ec:	c3                   	ret    

000135ed <_context_dump>:
   135ed:	f3 0f 1e fb          	endbr32 
   135f1:	55                   	push   %ebp
   135f2:	89 e5                	mov    %esp,%ebp
   135f4:	57                   	push   %edi
   135f5:	56                   	push   %esi
   135f6:	53                   	push   %ebx
   135f7:	83 ec 1c             	sub    $0x1c,%esp
   135fa:	8b 5d 0c             	mov    0xc(%ebp),%ebx
   135fd:	83 7d 08 00          	cmpl   $0x0,0x8(%ebp)
   13601:	74 13                	je     13616 <_context_dump+0x29>
   13603:	83 ec 08             	sub    $0x8,%esp
   13606:	ff 75 08             	pushl  0x8(%ebp)
   13609:	68 d4 7d 01 00       	push   $0x17dd4
   1360e:	e8 e3 df ff ff       	call   115f6 <__cio_printf>
   13613:	83 c4 10             	add    $0x10,%esp
   13616:	89 d8                	mov    %ebx,%eax
   13618:	83 ec 08             	sub    $0x8,%esp
   1361b:	50                   	push   %eax
   1361c:	68 d8 7d 01 00       	push   $0x17dd8
   13621:	e8 d0 df ff ff       	call   115f6 <__cio_printf>
   13626:	83 c4 10             	add    $0x10,%esp
   13629:	85 db                	test   %ebx,%ebx
   1362b:	75 15                	jne    13642 <_context_dump+0x55>
   1362d:	83 ec 0c             	sub    $0xc,%esp
   13630:	68 e1 7d 01 00       	push   $0x17de1
   13635:	e8 5f d9 ff ff       	call   10f99 <__cio_puts>
   1363a:	83 c4 10             	add    $0x10,%esp
   1363d:	e9 9e 00 00 00       	jmp    136e0 <_context_dump+0xf3>
   13642:	8b 43 40             	mov    0x40(%ebx),%eax
   13645:	0f b6 c0             	movzbl %al,%eax
   13648:	89 45 e4             	mov    %eax,-0x1c(%ebp)
   1364b:	8b 43 10             	mov    0x10(%ebx),%eax
   1364e:	0f b6 f8             	movzbl %al,%edi
   13651:	8b 43 0c             	mov    0xc(%ebx),%eax
   13654:	0f b6 f0             	movzbl %al,%esi
   13657:	8b 43 08             	mov    0x8(%ebx),%eax
   1365a:	0f b6 c8             	movzbl %al,%ecx
   1365d:	8b 43 04             	mov    0x4(%ebx),%eax
   13660:	0f b6 d0             	movzbl %al,%edx
   13663:	8b 03                	mov    (%ebx),%eax
   13665:	0f b6 c0             	movzbl %al,%eax
   13668:	83 ec 04             	sub    $0x4,%esp
   1366b:	ff 75 e4             	pushl  -0x1c(%ebp)
   1366e:	57                   	push   %edi
   1366f:	56                   	push   %esi
   13670:	51                   	push   %ecx
   13671:	52                   	push   %edx
   13672:	50                   	push   %eax
   13673:	68 50 7e 01 00       	push   $0x17e50
   13678:	e8 79 df ff ff       	call   115f6 <__cio_printf>
   1367d:	83 c4 20             	add    $0x20,%esp
   13680:	8b 73 20             	mov    0x20(%ebx),%esi
   13683:	8b 4b 1c             	mov    0x1c(%ebx),%ecx
   13686:	8b 53 18             	mov    0x18(%ebx),%edx
   13689:	8b 43 14             	mov    0x14(%ebx),%eax
   1368c:	83 ec 0c             	sub    $0xc,%esp
   1368f:	56                   	push   %esi
   13690:	51                   	push   %ecx
   13691:	52                   	push   %edx
   13692:	50                   	push   %eax
   13693:	68 84 7e 01 00       	push   $0x17e84
   13698:	e8 59 df ff ff       	call   115f6 <__cio_printf>
   1369d:	83 c4 20             	add    $0x20,%esp
   136a0:	8b 73 30             	mov    0x30(%ebx),%esi
   136a3:	8b 4b 2c             	mov    0x2c(%ebx),%ecx
   136a6:	8b 53 28             	mov    0x28(%ebx),%edx
   136a9:	8b 43 24             	mov    0x24(%ebx),%eax
   136ac:	83 ec 0c             	sub    $0xc,%esp
   136af:	56                   	push   %esi
   136b0:	51                   	push   %ecx
   136b1:	52                   	push   %edx
   136b2:	50                   	push   %eax
   136b3:	68 ac 7e 01 00       	push   $0x17eac
   136b8:	e8 39 df ff ff       	call   115f6 <__cio_printf>
   136bd:	83 c4 20             	add    $0x20,%esp
   136c0:	8b 73 44             	mov    0x44(%ebx),%esi
   136c3:	8b 4b 3c             	mov    0x3c(%ebx),%ecx
   136c6:	8b 53 38             	mov    0x38(%ebx),%edx
   136c9:	8b 43 34             	mov    0x34(%ebx),%eax
   136cc:	83 ec 0c             	sub    $0xc,%esp
   136cf:	56                   	push   %esi
   136d0:	51                   	push   %ecx
   136d1:	52                   	push   %edx
   136d2:	50                   	push   %eax
   136d3:	68 d4 7e 01 00       	push   $0x17ed4
   136d8:	e8 19 df ff ff       	call   115f6 <__cio_printf>
   136dd:	83 c4 20             	add    $0x20,%esp
   136e0:	8d 65 f4             	lea    -0xc(%ebp),%esp
   136e3:	5b                   	pop    %ebx
   136e4:	5e                   	pop    %esi
   136e5:	5f                   	pop    %edi
   136e6:	5d                   	pop    %ebp
   136e7:	c3                   	ret    

000136e8 <_context_dump_all>:
   136e8:	f3 0f 1e fb          	endbr32 
   136ec:	55                   	push   %ebp
   136ed:	89 e5                	mov    %esp,%ebp
   136ef:	83 ec 18             	sub    $0x18,%esp
   136f2:	83 7d 08 00          	cmpl   $0x0,0x8(%ebp)
   136f6:	74 13                	je     1370b <_context_dump_all+0x23>
   136f8:	83 ec 08             	sub    $0x8,%esp
   136fb:	ff 75 08             	pushl  0x8(%ebp)
   136fe:	68 fe 7e 01 00       	push   $0x17efe
   13703:	e8 ee de ff ff       	call   115f6 <__cio_printf>
   13708:	83 c4 10             	add    $0x10,%esp
   1370b:	a1 24 d2 01 00       	mov    0x1d224,%eax
   13710:	83 ec 08             	sub    $0x8,%esp
   13713:	50                   	push   %eax
   13714:	68 03 7f 01 00       	push   $0x17f03
   13719:	e8 d8 de ff ff       	call   115f6 <__cio_printf>
   1371e:	83 c4 10             	add    $0x10,%esp
   13721:	a1 24 d2 01 00       	mov    0x1d224,%eax
   13726:	85 c0                	test   %eax,%eax
   13728:	74 61                	je     1378b <_context_dump_all+0xa3>
   1372a:	c7 45 f4 00 00 00 00 	movl   $0x0,-0xc(%ebp)
   13731:	c7 45 f0 00 00 00 00 	movl   $0x0,-0x10(%ebp)
   13738:	eb 49                	jmp    13783 <_context_dump_all+0x9b>
   1373a:	8b 45 f0             	mov    -0x10(%ebp),%eax
   1373d:	8b 04 85 40 d2 01 00 	mov    0x1d240(,%eax,4),%eax
   13744:	89 45 ec             	mov    %eax,-0x14(%ebp)
   13747:	8b 45 ec             	mov    -0x14(%ebp),%eax
   1374a:	0f b6 40 14          	movzbl 0x14(%eax),%eax
   1374e:	84 c0                	test   %al,%al
   13750:	74 2d                	je     1377f <_context_dump_all+0x97>
   13752:	83 45 f4 01          	addl   $0x1,-0xc(%ebp)
   13756:	83 ec 04             	sub    $0x4,%esp
   13759:	ff 75 f0             	pushl  -0x10(%ebp)
   1375c:	ff 75 f4             	pushl  -0xc(%ebp)
   1375f:	68 18 7f 01 00       	push   $0x17f18
   13764:	e8 8d de ff ff       	call   115f6 <__cio_printf>
   13769:	83 c4 10             	add    $0x10,%esp
   1376c:	8b 45 ec             	mov    -0x14(%ebp),%eax
   1376f:	8b 00                	mov    (%eax),%eax
   13771:	83 ec 08             	sub    $0x8,%esp
   13774:	50                   	push   %eax
   13775:	6a 00                	push   $0x0
   13777:	e8 71 fe ff ff       	call   135ed <_context_dump>
   1377c:	83 c4 10             	add    $0x10,%esp
   1377f:	83 45 f0 01          	addl   $0x1,-0x10(%ebp)
   13783:	83 7d f0 18          	cmpl   $0x18,-0x10(%ebp)
   13787:	7e b1                	jle    1373a <_context_dump_all+0x52>
   13789:	eb 01                	jmp    1378c <_context_dump_all+0xa4>
   1378b:	90                   	nop
   1378c:	c9                   	leave  
   1378d:	c3                   	ret    

0001378e <_active_dump>:
   1378e:	f3 0f 1e fb          	endbr32 
   13792:	55                   	push   %ebp
   13793:	89 e5                	mov    %esp,%ebp
   13795:	53                   	push   %ebx
   13796:	83 ec 24             	sub    $0x24,%esp
   13799:	8b 45 0c             	mov    0xc(%ebp),%eax
   1379c:	88 45 e4             	mov    %al,-0x1c(%ebp)
   1379f:	83 7d 08 00          	cmpl   $0x0,0x8(%ebp)
   137a3:	74 13                	je     137b8 <_active_dump+0x2a>
   137a5:	83 ec 08             	sub    $0x8,%esp
   137a8:	ff 75 08             	pushl  0x8(%ebp)
   137ab:	68 fe 7e 01 00       	push   $0x17efe
   137b0:	e8 41 de ff ff       	call   115f6 <__cio_printf>
   137b5:	83 c4 10             	add    $0x10,%esp
   137b8:	c7 45 f4 00 00 00 00 	movl   $0x0,-0xc(%ebp)
   137bf:	c7 45 f0 00 00 00 00 	movl   $0x0,-0x10(%ebp)
   137c6:	c7 45 ec 00 00 00 00 	movl   $0x0,-0x14(%ebp)
   137cd:	e9 82 00 00 00       	jmp    13854 <_active_dump+0xc6>
   137d2:	8b 45 ec             	mov    -0x14(%ebp),%eax
   137d5:	8b 1c 85 40 d2 01 00 	mov    0x1d240(,%eax,4),%ebx
   137dc:	0f b6 43 14          	movzbl 0x14(%ebx),%eax
   137e0:	84 c0                	test   %al,%al
   137e2:	75 06                	jne    137ea <_active_dump+0x5c>
   137e4:	83 45 f0 01          	addl   $0x1,-0x10(%ebp)
   137e8:	eb 66                	jmp    13850 <_active_dump+0xc2>
   137ea:	83 45 f4 01          	addl   $0x1,-0xc(%ebp)
   137ee:	80 7d e4 00          	cmpb   $0x0,-0x1c(%ebp)
   137f2:	75 13                	jne    13807 <_active_dump+0x79>
   137f4:	83 7d f4 00          	cmpl   $0x0,-0xc(%ebp)
   137f8:	74 0d                	je     13807 <_active_dump+0x79>
   137fa:	83 ec 0c             	sub    $0xc,%esp
   137fd:	6a 2c                	push   $0x2c
   137ff:	e8 4d d6 ff ff       	call   10e51 <__cio_putchar>
   13804:	83 c4 10             	add    $0x10,%esp
   13807:	0f b6 43 14          	movzbl 0x14(%ebx),%eax
   1380b:	0f b6 c8             	movzbl %al,%ecx
   1380e:	0f b7 43 12          	movzwl 0x12(%ebx),%eax
   13812:	0f bf d0             	movswl %ax,%edx
   13815:	0f b7 43 10          	movzwl 0x10(%ebx),%eax
   13819:	98                   	cwtl   
   1381a:	83 ec 0c             	sub    $0xc,%esp
   1381d:	51                   	push   %ecx
   1381e:	52                   	push   %edx
   1381f:	50                   	push   %eax
   13820:	ff 75 ec             	pushl  -0x14(%ebp)
   13823:	68 23 7f 01 00       	push   $0x17f23
   13828:	e8 c9 dd ff ff       	call   115f6 <__cio_printf>
   1382d:	83 c4 20             	add    $0x20,%esp
   13830:	80 7d e4 00          	cmpb   $0x0,-0x1c(%ebp)
   13834:	74 1a                	je     13850 <_active_dump+0xc2>
   13836:	8b 03                	mov    (%ebx),%eax
   13838:	8b 40 3c             	mov    0x3c(%eax),%eax
   1383b:	8b 53 04             	mov    0x4(%ebx),%edx
   1383e:	83 ec 04             	sub    $0x4,%esp
   13841:	50                   	push   %eax
   13842:	52                   	push   %edx
   13843:	68 32 7f 01 00       	push   $0x17f32
   13848:	e8 a9 dd ff ff       	call   115f6 <__cio_printf>
   1384d:	83 c4 10             	add    $0x10,%esp
   13850:	83 45 ec 01          	addl   $0x1,-0x14(%ebp)
   13854:	83 7d ec 18          	cmpl   $0x18,-0x14(%ebp)
   13858:	0f 8e 74 ff ff ff    	jle    137d2 <_active_dump+0x44>
   1385e:	80 7d e4 00          	cmpb   $0x0,-0x1c(%ebp)
   13862:	75 0d                	jne    13871 <_active_dump+0xe3>
   13864:	83 ec 0c             	sub    $0xc,%esp
   13867:	6a 0a                	push   $0xa
   13869:	e8 e3 d5 ff ff       	call   10e51 <__cio_putchar>
   1386e:	83 c4 10             	add    $0x10,%esp
   13871:	8b 55 f4             	mov    -0xc(%ebp),%edx
   13874:	8b 45 f0             	mov    -0x10(%ebp),%eax
   13877:	01 d0                	add    %edx,%eax
   13879:	83 f8 19             	cmp    $0x19,%eax
   1387c:	74 21                	je     1389f <_active_dump+0x111>
   1387e:	8b 55 f4             	mov    -0xc(%ebp),%edx
   13881:	8b 45 f0             	mov    -0x10(%ebp),%eax
   13884:	01 d0                	add    %edx,%eax
   13886:	83 ec 0c             	sub    $0xc,%esp
   13889:	50                   	push   %eax
   1388a:	ff 75 f0             	pushl  -0x10(%ebp)
   1388d:	ff 75 f4             	pushl  -0xc(%ebp)
   13890:	6a 19                	push   $0x19
   13892:	68 48 7f 01 00       	push   $0x17f48
   13897:	e8 5a dd ff ff       	call   115f6 <__cio_printf>
   1389c:	83 c4 20             	add    $0x20,%esp
   1389f:	90                   	nop
   138a0:	8b 5d fc             	mov    -0x4(%ebp),%ebx
   138a3:	c9                   	leave  
   138a4:	c3                   	ret    

000138a5 <_new_qnodes>:
   138a5:	f3 0f 1e fb          	endbr32 
   138a9:	55                   	push   %ebp
   138aa:	89 e5                	mov    %esp,%ebp
   138ac:	83 ec 28             	sub    $0x28,%esp
   138af:	8b 45 08             	mov    0x8(%ebp),%eax
   138b2:	88 45 e4             	mov    %al,-0x1c(%ebp)
   138b5:	e8 03 f7 ff ff       	call   12fbd <_km_slice_alloc>
   138ba:	89 45 f0             	mov    %eax,-0x10(%ebp)
   138bd:	80 7d e4 00          	cmpb   $0x0,-0x1c(%ebp)
   138c1:	74 3e                	je     13901 <_new_qnodes+0x5c>
   138c3:	83 7d f0 00          	cmpl   $0x0,-0x10(%ebp)
   138c7:	75 38                	jne    13901 <_new_qnodes+0x5c>
   138c9:	83 ec 08             	sub    $0x8,%esp
   138cc:	6a 00                	push   $0x0
   138ce:	6a 6d                	push   $0x6d
   138d0:	68 80 7f 01 00       	push   $0x17f80
   138d5:	68 24 80 01 00       	push   $0x18024
   138da:	68 89 7f 01 00       	push   $0x17f89
   138df:	68 e0 ce 01 00       	push   $0x1cee0
   138e4:	e8 55 ec ff ff       	call   1253e <__sprint>
   138e9:	83 c4 20             	add    $0x20,%esp
   138ec:	83 ec 08             	sub    $0x8,%esp
   138ef:	68 a3 7f 01 00       	push   $0x17fa3
   138f4:	68 e0 ce 01 00       	push   $0x1cee0
   138f9:	e8 57 f0 ff ff       	call   12955 <_kpanic>
   138fe:	83 c4 10             	add    $0x10,%esp
   13901:	83 7d f0 00          	cmpl   $0x0,-0x10(%ebp)
   13905:	75 07                	jne    1390e <_new_qnodes+0x69>
   13907:	b8 00 00 00 00       	mov    $0x0,%eax
   1390c:	eb 46                	jmp    13954 <_new_qnodes+0xaf>
   1390e:	83 ec 08             	sub    $0x8,%esp
   13911:	68 00 04 00 00       	push   $0x400
   13916:	ff 75 f0             	pushl  -0x10(%ebp)
   13919:	e8 3c ea ff ff       	call   1235a <__memclr>
   1391e:	83 c4 10             	add    $0x10,%esp
   13921:	c7 45 f4 00 00 00 00 	movl   $0x0,-0xc(%ebp)
   13928:	eb 1d                	jmp    13947 <_new_qnodes+0xa2>
   1392a:	8b 45 f4             	mov    -0xc(%ebp),%eax
   1392d:	c1 e0 04             	shl    $0x4,%eax
   13930:	89 c2                	mov    %eax,%edx
   13932:	8b 45 f0             	mov    -0x10(%ebp),%eax
   13935:	01 d0                	add    %edx,%eax
   13937:	83 ec 0c             	sub    $0xc,%esp
   1393a:	50                   	push   %eax
   1393b:	e8 36 01 00 00       	call   13a76 <_qn_free>
   13940:	83 c4 10             	add    $0x10,%esp
   13943:	83 45 f4 01          	addl   $0x1,-0xc(%ebp)
   13947:	8b 45 f4             	mov    -0xc(%ebp),%eax
   1394a:	83 f8 3f             	cmp    $0x3f,%eax
   1394d:	76 db                	jbe    1392a <_new_qnodes+0x85>
   1394f:	b8 01 00 00 00       	mov    $0x1,%eax
   13954:	c9                   	leave  
   13955:	c3                   	ret    

00013956 <_new_queues>:
   13956:	f3 0f 1e fb          	endbr32 
   1395a:	55                   	push   %ebp
   1395b:	89 e5                	mov    %esp,%ebp
   1395d:	83 ec 28             	sub    $0x28,%esp
   13960:	8b 45 08             	mov    0x8(%ebp),%eax
   13963:	88 45 e4             	mov    %al,-0x1c(%ebp)
   13966:	e8 52 f6 ff ff       	call   12fbd <_km_slice_alloc>
   1396b:	89 45 f0             	mov    %eax,-0x10(%ebp)
   1396e:	80 7d e4 00          	cmpb   $0x0,-0x1c(%ebp)
   13972:	74 41                	je     139b5 <_new_queues+0x5f>
   13974:	83 7d f0 00          	cmpl   $0x0,-0x10(%ebp)
   13978:	75 3b                	jne    139b5 <_new_queues+0x5f>
   1397a:	83 ec 08             	sub    $0x8,%esp
   1397d:	6a 00                	push   $0x0
   1397f:	68 91 00 00 00       	push   $0x91
   13984:	68 80 7f 01 00       	push   $0x17f80
   13989:	68 30 80 01 00       	push   $0x18030
   1398e:	68 89 7f 01 00       	push   $0x17f89
   13993:	68 e0 ce 01 00       	push   $0x1cee0
   13998:	e8 a1 eb ff ff       	call   1253e <__sprint>
   1399d:	83 c4 20             	add    $0x20,%esp
   139a0:	83 ec 08             	sub    $0x8,%esp
   139a3:	68 a3 7f 01 00       	push   $0x17fa3
   139a8:	68 e0 ce 01 00       	push   $0x1cee0
   139ad:	e8 a3 ef ff ff       	call   12955 <_kpanic>
   139b2:	83 c4 10             	add    $0x10,%esp
   139b5:	83 7d f0 00          	cmpl   $0x0,-0x10(%ebp)
   139b9:	75 07                	jne    139c2 <_new_queues+0x6c>
   139bb:	b8 00 00 00 00       	mov    $0x0,%eax
   139c0:	eb 46                	jmp    13a08 <_new_queues+0xb2>
   139c2:	83 ec 08             	sub    $0x8,%esp
   139c5:	68 00 04 00 00       	push   $0x400
   139ca:	ff 75 f0             	pushl  -0x10(%ebp)
   139cd:	e8 88 e9 ff ff       	call   1235a <__memclr>
   139d2:	83 c4 10             	add    $0x10,%esp
   139d5:	c7 45 f4 00 00 00 00 	movl   $0x0,-0xc(%ebp)
   139dc:	eb 1d                	jmp    139fb <_new_queues+0xa5>
   139de:	8b 45 f4             	mov    -0xc(%ebp),%eax
   139e1:	c1 e0 04             	shl    $0x4,%eax
   139e4:	89 c2                	mov    %eax,%edx
   139e6:	8b 45 f0             	mov    -0x10(%ebp),%eax
   139e9:	01 d0                	add    %edx,%eax
   139eb:	83 ec 0c             	sub    $0xc,%esp
   139ee:	50                   	push   %eax
   139ef:	e8 65 01 00 00       	call   13b59 <_que_free>
   139f4:	83 c4 10             	add    $0x10,%esp
   139f7:	83 45 f4 01          	addl   $0x1,-0xc(%ebp)
   139fb:	8b 45 f4             	mov    -0xc(%ebp),%eax
   139fe:	83 f8 3f             	cmp    $0x3f,%eax
   13a01:	76 db                	jbe    139de <_new_queues+0x88>
   13a03:	b8 01 00 00 00       	mov    $0x1,%eax
   13a08:	c9                   	leave  
   13a09:	c3                   	ret    

00013a0a <_qn_alloc>:
   13a0a:	f3 0f 1e fb          	endbr32 
   13a0e:	55                   	push   %ebp
   13a0f:	89 e5                	mov    %esp,%ebp
   13a11:	83 ec 18             	sub    $0x18,%esp
   13a14:	a1 24 b6 01 00       	mov    0x1b624,%eax
   13a19:	85 c0                	test   %eax,%eax
   13a1b:	75 18                	jne    13a35 <_qn_alloc+0x2b>
   13a1d:	83 ec 0c             	sub    $0xc,%esp
   13a20:	6a 00                	push   $0x0
   13a22:	e8 7e fe ff ff       	call   138a5 <_new_qnodes>
   13a27:	83 c4 10             	add    $0x10,%esp
   13a2a:	84 c0                	test   %al,%al
   13a2c:	75 07                	jne    13a35 <_qn_alloc+0x2b>
   13a2e:	b8 00 00 00 00       	mov    $0x0,%eax
   13a33:	eb 3f                	jmp    13a74 <_qn_alloc+0x6a>
   13a35:	a1 24 b6 01 00       	mov    0x1b624,%eax
   13a3a:	89 45 f4             	mov    %eax,-0xc(%ebp)
   13a3d:	8b 45 f4             	mov    -0xc(%ebp),%eax
   13a40:	8b 40 04             	mov    0x4(%eax),%eax
   13a43:	a3 24 b6 01 00       	mov    %eax,0x1b624
   13a48:	8b 45 f4             	mov    -0xc(%ebp),%eax
   13a4b:	c7 40 0c 00 00 00 00 	movl   $0x0,0xc(%eax)
   13a52:	8b 45 f4             	mov    -0xc(%ebp),%eax
   13a55:	c7 40 04 00 00 00 00 	movl   $0x0,0x4(%eax)
   13a5c:	8b 45 f4             	mov    -0xc(%ebp),%eax
   13a5f:	8b 50 04             	mov    0x4(%eax),%edx
   13a62:	8b 45 f4             	mov    -0xc(%ebp),%eax
   13a65:	89 10                	mov    %edx,(%eax)
   13a67:	8b 45 f4             	mov    -0xc(%ebp),%eax
   13a6a:	c7 40 08 00 00 00 00 	movl   $0x0,0x8(%eax)
   13a71:	8b 45 f4             	mov    -0xc(%ebp),%eax
   13a74:	c9                   	leave  
   13a75:	c3                   	ret    

00013a76 <_qn_free>:
   13a76:	f3 0f 1e fb          	endbr32 
   13a7a:	55                   	push   %ebp
   13a7b:	89 e5                	mov    %esp,%ebp
   13a7d:	8b 15 24 b6 01 00    	mov    0x1b624,%edx
   13a83:	8b 45 08             	mov    0x8(%ebp),%eax
   13a86:	89 50 04             	mov    %edx,0x4(%eax)
   13a89:	8b 45 08             	mov    0x8(%ebp),%eax
   13a8c:	a3 24 b6 01 00       	mov    %eax,0x1b624
   13a91:	90                   	nop
   13a92:	5d                   	pop    %ebp
   13a93:	c3                   	ret    

00013a94 <_que_init>:
   13a94:	f3 0f 1e fb          	endbr32 
   13a98:	55                   	push   %ebp
   13a99:	89 e5                	mov    %esp,%ebp
   13a9b:	83 ec 08             	sub    $0x8,%esp
   13a9e:	83 ec 0c             	sub    $0xc,%esp
   13aa1:	68 bb 7f 01 00       	push   $0x17fbb
   13aa6:	e8 ee d4 ff ff       	call   10f99 <__cio_puts>
   13aab:	83 c4 10             	add    $0x10,%esp
   13aae:	c7 05 24 b6 01 00 00 	movl   $0x0,0x1b624
   13ab5:	00 00 00 
   13ab8:	83 ec 0c             	sub    $0xc,%esp
   13abb:	6a 01                	push   $0x1
   13abd:	e8 e3 fd ff ff       	call   138a5 <_new_qnodes>
   13ac2:	83 c4 10             	add    $0x10,%esp
   13ac5:	c7 05 28 b6 01 00 00 	movl   $0x0,0x1b628
   13acc:	00 00 00 
   13acf:	83 ec 0c             	sub    $0xc,%esp
   13ad2:	6a 01                	push   $0x1
   13ad4:	e8 7d fe ff ff       	call   13956 <_new_queues>
   13ad9:	83 c4 10             	add    $0x10,%esp
   13adc:	83 ec 0c             	sub    $0xc,%esp
   13adf:	68 c3 7f 01 00       	push   $0x17fc3
   13ae4:	e8 b0 d4 ff ff       	call   10f99 <__cio_puts>
   13ae9:	83 c4 10             	add    $0x10,%esp
   13aec:	90                   	nop
   13aed:	c9                   	leave  
   13aee:	c3                   	ret    

00013aef <_que_alloc>:
   13aef:	f3 0f 1e fb          	endbr32 
   13af3:	55                   	push   %ebp
   13af4:	89 e5                	mov    %esp,%ebp
   13af6:	83 ec 18             	sub    $0x18,%esp
   13af9:	a1 28 b6 01 00       	mov    0x1b628,%eax
   13afe:	85 c0                	test   %eax,%eax
   13b00:	75 18                	jne    13b1a <_que_alloc+0x2b>
   13b02:	83 ec 0c             	sub    $0xc,%esp
   13b05:	6a 00                	push   $0x0
   13b07:	e8 4a fe ff ff       	call   13956 <_new_queues>
   13b0c:	83 c4 10             	add    $0x10,%esp
   13b0f:	84 c0                	test   %al,%al
   13b11:	75 07                	jne    13b1a <_que_alloc+0x2b>
   13b13:	b8 00 00 00 00       	mov    $0x0,%eax
   13b18:	eb 3d                	jmp    13b57 <_que_alloc+0x68>
   13b1a:	a1 28 b6 01 00       	mov    0x1b628,%eax
   13b1f:	89 45 f4             	mov    %eax,-0xc(%ebp)
   13b22:	8b 45 f4             	mov    -0xc(%ebp),%eax
   13b25:	8b 00                	mov    (%eax),%eax
   13b27:	a3 28 b6 01 00       	mov    %eax,0x1b628
   13b2c:	8b 45 f4             	mov    -0xc(%ebp),%eax
   13b2f:	c7 40 04 00 00 00 00 	movl   $0x0,0x4(%eax)
   13b36:	8b 45 f4             	mov    -0xc(%ebp),%eax
   13b39:	8b 50 04             	mov    0x4(%eax),%edx
   13b3c:	8b 45 f4             	mov    -0xc(%ebp),%eax
   13b3f:	89 10                	mov    %edx,(%eax)
   13b41:	8b 45 f4             	mov    -0xc(%ebp),%eax
   13b44:	c7 40 08 00 00 00 00 	movl   $0x0,0x8(%eax)
   13b4b:	8b 45 f4             	mov    -0xc(%ebp),%eax
   13b4e:	8b 55 08             	mov    0x8(%ebp),%edx
   13b51:	89 50 0c             	mov    %edx,0xc(%eax)
   13b54:	8b 45 f4             	mov    -0xc(%ebp),%eax
   13b57:	c9                   	leave  
   13b58:	c3                   	ret    

00013b59 <_que_free>:
   13b59:	f3 0f 1e fb          	endbr32 
